
DE10_Nano_bal.elf:     file format elf32-littlenios2
DE10_Nano_bal.elf
architecture: nios2:r1, flags 0x00000112:
EXEC_P, HAS_SYMS, D_PAGED
start address 0x01080248

Program Header:
    LOAD off    0x00001000 vaddr 0x01080000 paddr 0x01080000 align 2**12
         filesz 0x00000020 memsz 0x00000020 flags r-x
    LOAD off    0x00001020 vaddr 0x01080020 paddr 0x01080020 align 2**12
         filesz 0x0001cdb4 memsz 0x0001cdb4 flags r-x
    LOAD off    0x0001ddd4 vaddr 0x0109cdd4 paddr 0x0109ea08 align 2**12
         filesz 0x00001c34 memsz 0x00001c34 flags rw-
    LOAD off    0x0002063c vaddr 0x010a063c paddr 0x010a063c align 2**12
         filesz 0x00000000 memsz 0x00000278 flags rw-

Sections:
Idx Name          Size      VMA       LMA       File off  Algn
  0 .entry        00000020  01080000  01080000  00001000  2**5
                  CONTENTS, ALLOC, LOAD, READONLY, CODE
  1 .exceptions   00000228  01080020  01080020  00001020  2**2
                  CONTENTS, ALLOC, LOAD, READONLY, CODE
  2 .text         0001c250  01080248  01080248  00001248  2**2
                  CONTENTS, ALLOC, LOAD, READONLY, CODE
  3 .rodata       0000093c  0109c498  0109c498  0001d498  2**2
                  CONTENTS, ALLOC, LOAD, READONLY, DATA
  4 .rwdata       00001c34  0109cdd4  0109ea08  0001ddd4  2**2
                  CONTENTS, ALLOC, LOAD, DATA, SMALL_DATA
  5 .bss          00000278  010a063c  010a063c  0002063c  2**2
                  ALLOC, SMALL_DATA
  6 .onchip_memory2_0 00000000  010a08b4  010a08b4  0001fa08  2**0
                  CONTENTS
  7 .comment      00000023  00000000  00000000  0001fa08  2**0
                  CONTENTS, READONLY
  8 .debug_aranges 00001780  00000000  00000000  0001fa30  2**3
                  CONTENTS, READONLY, DEBUGGING
  9 .debug_info   00037a17  00000000  00000000  000211b0  2**0
                  CONTENTS, READONLY, DEBUGGING
 10 .debug_abbrev 0000f2d8  00000000  00000000  00058bc7  2**0
                  CONTENTS, READONLY, DEBUGGING
 11 .debug_line   0001340b  00000000  00000000  00067e9f  2**0
                  CONTENTS, READONLY, DEBUGGING
 12 .debug_frame  000042e0  00000000  00000000  0007b2ac  2**2
                  CONTENTS, READONLY, DEBUGGING
 13 .debug_str    00008259  00000000  00000000  0007f58c  2**0
                  CONTENTS, READONLY, DEBUGGING
 14 .debug_loc    0002475e  00000000  00000000  000877e5  2**0
                  CONTENTS, READONLY, DEBUGGING
 15 .debug_alt_sim_info 00000060  00000000  00000000  000abf44  2**2
                  CONTENTS, READONLY, DEBUGGING
 16 .debug_ranges 00002888  00000000  00000000  000abfa8  2**3
                  CONTENTS, READONLY, DEBUGGING
 17 .thread_model 00000003  00000000  00000000  000b5126  2**0
                  CONTENTS, READONLY
 18 .cpu          0000000c  00000000  00000000  000b5129  2**0
                  CONTENTS, READONLY
 19 .qsys         00000001  00000000  00000000  000b5135  2**0
                  CONTENTS, READONLY
 20 .simulation_enabled 00000001  00000000  00000000  000b5136  2**0
                  CONTENTS, READONLY
 21 .sysid_hash   00000004  00000000  00000000  000b5137  2**0
                  CONTENTS, READONLY
 22 .sysid_base   00000004  00000000  00000000  000b513b  2**0
                  CONTENTS, READONLY
 23 .sysid_time   00000004  00000000  00000000  000b513f  2**0
                  CONTENTS, READONLY
 24 .stderr_dev   00000009  00000000  00000000  000b5143  2**0
                  CONTENTS, READONLY
 25 .stdin_dev    00000009  00000000  00000000  000b514c  2**0
                  CONTENTS, READONLY
 26 .stdout_dev   00000009  00000000  00000000  000b5155  2**0
                  CONTENTS, READONLY
 27 .sopc_system_name 00000004  00000000  00000000  000b515e  2**0
                  CONTENTS, READONLY
 28 .quartus_project_dir 0000001a  00000000  00000000  000b5162  2**0
                  CONTENTS, READONLY
 29 .jdi          00003d17  00000000  00000000  000b517c  2**0
                  CONTENTS, READONLY
 30 .sopcinfo     0009fff5  00000000  00000000  000b8e93  2**0
                  CONTENTS, READONLY
SYMBOL TABLE:
01080000 l    d  .entry	00000000 .entry
01080020 l    d  .exceptions	00000000 .exceptions
01080248 l    d  .text	00000000 .text
0109c498 l    d  .rodata	00000000 .rodata
0109cdd4 l    d  .rwdata	00000000 .rwdata
010a063c l    d  .bss	00000000 .bss
010a08b4 l    d  .onchip_memory2_0	00000000 .onchip_memory2_0
00000000 l    d  .comment	00000000 .comment
00000000 l    d  .debug_aranges	00000000 .debug_aranges
00000000 l    d  .debug_info	00000000 .debug_info
00000000 l    d  .debug_abbrev	00000000 .debug_abbrev
00000000 l    d  .debug_line	00000000 .debug_line
00000000 l    d  .debug_frame	00000000 .debug_frame
00000000 l    d  .debug_str	00000000 .debug_str
00000000 l    d  .debug_loc	00000000 .debug_loc
00000000 l    d  .debug_alt_sim_info	00000000 .debug_alt_sim_info
00000000 l    d  .debug_ranges	00000000 .debug_ranges
00000000 l    df *ABS*	00000000 ../DE10_Nano_bal_bsp//obj/HAL/src/crt0.o
01080290 l       .text	00000000 alt_after_alt_main
00000000 l    df *ABS*	00000000 alt_irq_handler.c
00000000 l    df *ABS*	00000000 alt_instruction_exception_entry.c
00000000 l    df *ABS*	00000000 i2c_opencores.c
00000000 l    df *ABS*	00000000 Car.cpp
00000000 l    df *ABS*	00000000 IrRx.cpp
00000000 l    df *ABS*	00000000 MPU.cpp
00000000 l    df *ABS*	00000000 Motor.cpp
00000000 l    df *ABS*	00000000 Queue.cpp
00000000 l    df *ABS*	00000000 kalman.cpp
00000000 l    df *ABS*	00000000 main.cpp
010a068c l     O .bss	00000004 _ZZ8set_paravE11count_times
010a0690 l     O .bss	00000004 _ZZ8set_paravE5count
010a0694 l     O .bss	00000004 _ZZ5speedvE13Encoder_Least
010a0698 l     O .bss	00000004 _ZZ5speedvE7Encoder
010a069c l     O .bss	00000004 _ZZ5speedvE16Encoder_Integral
010a06a0 l     O .bss	00000004 _ZZ5speedvE5Speed
010a06a4 l     O .bss	00000004 _ZZ11MPU_INT_ISRPvmE5count
01084ad0 l     F .text	000000ec _Z41__static_initialization_and_destruction_0ii
01084bbc l     F .text	00000030 _GLOBAL__sub_I_gCommandList
01084bec l     F .text	00000030 _GLOBAL__sub_D_gCommandList
00000000 l    df *ABS*	00000000 si_class_type_info.cc
00000000 l    df *ABS*	00000000 class_type_info.cc
00000000 l    df *ABS*	00000000 tinfo.cc
00000000 l    df *ABS*	00000000 eh_personality.cc
01085204 l     F .text	000000a4 _ZL21size_of_encoded_valueh
010852a8 l     F .text	0000020c _ZL28read_encoded_value_with_basehjPKhPj
010854b4 l     F .text	00000054 _ZL15get_ttype_entryP16lsda_header_infom
01085508 l     F .text	0000008c _ZL21base_of_encoded_valuehP15_Unwind_Context
01085594 l     F .text	00000134 _ZL17parse_lsda_headerP15_Unwind_ContextPKhP16lsda_header_info
010856c8 l     F .text	00000088 _ZL16get_adjusted_ptrPKSt9type_infoS1_PPv.constprop.3
01085750 l     F .text	000001c0 _ZL28check_compact_exception_specPKSt9type_infoPvPKhij
01085910 l     F .text	000000a8 _ZL20check_exception_specP16lsda_header_infoPKSt9type_infoPvl
00000000 l    df *ABS*	00000000 eh_catch.cc
00000000 l    df *ABS*	00000000 del_op.cc
00000000 l    df *ABS*	00000000 eh_terminate.cc
00000000 l    df *ABS*	00000000 eh_term_handler.cc
00000000 l    df *ABS*	00000000 eh_throw.cc
010864c4 l     F .text	00000044 _ZL23__gxx_exception_cleanup19_Unwind_Reason_CodeP17_Unwind_Exception
00000000 l    df *ABS*	00000000 eh_unex_handler.cc
00000000 l    df *ABS*	00000000 eh_call.cc
00000000 l    df *ABS*	00000000 eh_alloc.cc
01086674 l     F .text	000000b8 _ZN12_GLOBAL__N_14pool4freeEPv.constprop.4
010a077c l     O .bss	00000010 _ZN12_GLOBAL__N_114emergency_poolE
0108672c l     F .text	000000a8 _ZN12_GLOBAL__N_14pool8allocateEj.constprop.5
010868dc l     F .text	0000005c _GLOBAL__sub_I___cxa_allocate_exception
00000000 l    df *ABS*	00000000 eh_exception.cc
00000000 l    df *ABS*	00000000 eh_globals.cc
010a06a8 l     O .bss	00000008 _ZL10eh_globals
00000000 l    df *ABS*	00000000 pure.cc
00000000 l    df *ABS*	00000000 w_atan2.c
00000000 l    df *ABS*	00000000 e_atan2.c
00000000 l    df *ABS*	00000000 s_atan.c
0109c7ec l     O .rodata	00000020 atanhi
0109c7cc l     O .rodata	00000020 atanlo
00000000 l    df *ABS*	00000000 s_fabs.c
00000000 l    df *ABS*	00000000 libgcc2.c
00000000 l    df *ABS*	00000000 lib2-divmod.c
00000000 l    df *ABS*	00000000 addsf3.c
00000000 l    df *ABS*	00000000 divsf3.c
00000000 l    df *ABS*	00000000 eqsf2.c
00000000 l    df *ABS*	00000000 gesf2.c
00000000 l    df *ABS*	00000000 lesf2.c
00000000 l    df *ABS*	00000000 mulsf3.c
00000000 l    df *ABS*	00000000 subsf3.c
00000000 l    df *ABS*	00000000 fixsfsi.c
00000000 l    df *ABS*	00000000 floatsisf.c
00000000 l    df *ABS*	00000000 floatunsisf.c
00000000 l    df *ABS*	00000000 adddf3.c
00000000 l    df *ABS*	00000000 divdf3.c
00000000 l    df *ABS*	00000000 gedf2.c
00000000 l    df *ABS*	00000000 muldf3.c
00000000 l    df *ABS*	00000000 subdf3.c
00000000 l    df *ABS*	00000000 fixdfsi.c
00000000 l    df *ABS*	00000000 floatsidf.c
00000000 l    df *ABS*	00000000 extendsfdf2.c
00000000 l    df *ABS*	00000000 truncdfsf2.c
00000000 l    df *ABS*	00000000 unwind-sjlj.c
0108b13c l     F .text	00000118 _Unwind_ForcedUnwind_Phase2
010a06b0 l     O .bss	00000004 fc_static
0108b254 l     F .text	000000c0 _Unwind_RaiseException_Phase2
0108b314 l     F .text	00000030 uw_install_context.isra.1
00000000 l    df *ABS*	00000000 libgcc2.c
00000000 l    df *ABS*	00000000 libgcc2.c
00000000 l    df *ABS*	00000000 abort.c
00000000 l    df *ABS*	00000000 atoi.c
00000000 l    df *ABS*	00000000 malloc.c
00000000 l    df *ABS*	00000000 mallocr.c
00000000 l    df *ABS*	00000000 memset.c
00000000 l    df *ABS*	00000000 printf.c
00000000 l    df *ABS*	00000000 puts.c
00000000 l    df *ABS*	00000000 sbrkr.c
00000000 l    df *ABS*	00000000 signal.c
00000000 l    df *ABS*	00000000 signalr.c
00000000 l    df *ABS*	00000000 sprintf.c
00000000 l    df *ABS*	00000000 strcmp.c
00000000 l    df *ABS*	00000000 strlen.c
00000000 l    df *ABS*	00000000 strncmp.c
00000000 l    df *ABS*	00000000 strtol.c
00000000 l    df *ABS*	00000000 vfprintf.c
0109c952 l     O .rodata	00000010 zeroes.4389
0109c962 l     O .rodata	00000010 blanks.4388
00000000 l    df *ABS*	00000000 vfprintf.c
0109c972 l     O .rodata	00000010 zeroes.4404
01090e2c l     F .text	000000bc __sbprintf
0109c982 l     O .rodata	00000010 blanks.4403
00000000 l    df *ABS*	00000000 wsetup.c
00000000 l    df *ABS*	00000000 ctype_.c
0109ca93 l     O .rodata	00000180 _ctype_b
00000000 l    df *ABS*	00000000 dtoa.c
0109103c l     F .text	00000200 quorem
00000000 l    df *ABS*	00000000 fflush.c
00000000 l    df *ABS*	00000000 findfp.c
01092b6c l     F .text	00000008 __fp_unlock
01092b80 l     F .text	0000019c __sinit.part.1
01092d1c l     F .text	00000008 __fp_lock
00000000 l    df *ABS*	00000000 mallocr.c
00000000 l    df *ABS*	00000000 fvwrite.c
00000000 l    df *ABS*	00000000 fwalk.c
00000000 l    df *ABS*	00000000 impure.c
0109d290 l     O .rwdata	00000424 impure_data
00000000 l    df *ABS*	00000000 int_errno.c
00000000 l    df *ABS*	00000000 locale.c
0109d6d4 l     O .rwdata	00000020 lc_ctype_charset
0109d6b4 l     O .rwdata	00000020 lc_message_charset
0109d6f4 l     O .rwdata	00000038 lconv
00000000 l    df *ABS*	00000000 makebuf.c
00000000 l    df *ABS*	00000000 memchr.c
00000000 l    df *ABS*	00000000 memcpy.c
00000000 l    df *ABS*	00000000 memmove.c
00000000 l    df *ABS*	00000000 mprec.c
0109cc34 l     O .rodata	0000000c p05.2768
00000000 l    df *ABS*	00000000 mallocr.c
00000000 l    df *ABS*	00000000 s_fpclassify.c
00000000 l    df *ABS*	00000000 stdio.c
00000000 l    df *ABS*	00000000 vfprintf.c
0109cd68 l     O .rodata	00000010 blanks.4332
0109cd58 l     O .rodata	00000010 zeroes.4333
00000000 l    df *ABS*	00000000 vfprintf.c
01096ac0 l     F .text	000000fc __sprint_r.part.0
0109cd88 l     O .rodata	00000010 blanks.4348
0109cd78 l     O .rodata	00000010 zeroes.4349
0109804c l     F .text	000000bc __sbprintf
00000000 l    df *ABS*	00000000 writer.c
00000000 l    df *ABS*	00000000 closer.c
00000000 l    df *ABS*	00000000 mallocr.c
00000000 l    df *ABS*	00000000 fclose.c
00000000 l    df *ABS*	00000000 fputwc.c
00000000 l    df *ABS*	00000000 fstatr.c
00000000 l    df *ABS*	00000000 isattyr.c
00000000 l    df *ABS*	00000000 lseekr.c
00000000 l    df *ABS*	00000000 readr.c
00000000 l    df *ABS*	00000000 wbuf.c
00000000 l    df *ABS*	00000000 wcrtomb.c
00000000 l    df *ABS*	00000000 wctomb_r.c
00000000 l    df *ABS*	00000000 libgcc2.c
00000000 l    df *ABS*	00000000 libgcc2.c
00000000 l    df *ABS*	00000000 eqdf2.c
00000000 l    df *ABS*	00000000 ledf2.c
00000000 l    df *ABS*	00000000 floatunsidf.c
00000000 l    df *ABS*	00000000 alt_close.c
01099710 l     F .text	0000003c alt_get_errno
00000000 l    df *ABS*	00000000 alt_dev.c
0109981c l     F .text	0000002c alt_dev_null_write
00000000 l    df *ABS*	00000000 alt_errno.c
00000000 l    df *ABS*	00000000 alt_exit.c
00000000 l    df *ABS*	00000000 alt_fstat.c
0109987c l     F .text	0000003c alt_get_errno
00000000 l    df *ABS*	00000000 alt_getpid.c
00000000 l    df *ABS*	00000000 alt_irq_register.c
00000000 l    df *ABS*	00000000 alt_irq_vars.c
00000000 l    df *ABS*	00000000 alt_isatty.c
01099b08 l     F .text	0000003c alt_get_errno
00000000 l    df *ABS*	00000000 alt_kill.c
01099be8 l     F .text	0000003c alt_get_errno
00000000 l    df *ABS*	00000000 alt_load.c
01099d54 l     F .text	00000068 alt_load_section
00000000 l    df *ABS*	00000000 alt_lseek.c
01099e40 l     F .text	0000003c alt_get_errno
00000000 l    df *ABS*	00000000 alt_main.c
00000000 l    df *ABS*	00000000 alt_malloc_lock.c
00000000 l    df *ABS*	00000000 alt_read.c
0109a014 l     F .text	0000003c alt_get_errno
00000000 l    df *ABS*	00000000 alt_release_fd.c
00000000 l    df *ABS*	00000000 alt_sbrk.c
0109e9fc l     O .rwdata	00000004 heap_end
00000000 l    df *ABS*	00000000 alt_usleep.c
00000000 l    df *ABS*	00000000 alt_write.c
0109a290 l     F .text	0000003c alt_get_errno
00000000 l    df *ABS*	00000000 alt_sys_init.c
0109a3c4 l     F .text	00000034 alt_dev_reg
0109d8d4 l     O .rwdata	00001060 jtag_uart
0109e934 l     O .rwdata	0000002c uart_bt
00000000 l    df *ABS*	00000000 altera_avalon_jtag_uart_fd.c
00000000 l    df *ABS*	00000000 altera_avalon_jtag_uart_init.c
0109a6b8 l     F .text	00000210 altera_avalon_jtag_uart_irq
0109a8c8 l     F .text	000000a0 altera_avalon_jtag_uart_timeout
00000000 l    df *ABS*	00000000 altera_avalon_jtag_uart_ioctl.c
00000000 l    df *ABS*	00000000 altera_avalon_jtag_uart_read.c
00000000 l    df *ABS*	00000000 altera_avalon_jtag_uart_write.c
00000000 l    df *ABS*	00000000 altera_avalon_timer_sc.c
0109af00 l     F .text	0000007c alt_avalon_timer_sc_irq
00000000 l    df *ABS*	00000000 altera_up_avalon_rs232.c
00000000 l    df *ABS*	00000000 alt_alarm_start.c
00000000 l    df *ABS*	00000000 alt_busy_sleep.c
00000000 l    df *ABS*	00000000 alt_dcache_flush_all.c
00000000 l    df *ABS*	00000000 alt_dev_llist_insert.c
0109b64c l     F .text	0000003c alt_get_errno
00000000 l    df *ABS*	00000000 alt_do_ctors.c
00000000 l    df *ABS*	00000000 alt_do_dtors.c
00000000 l    df *ABS*	00000000 alt_find_dev.c
00000000 l    df *ABS*	00000000 alt_icache_flush_all.c
00000000 l    df *ABS*	00000000 alt_io_redirect.c
0109b8b0 l     F .text	000000c4 alt_open_fd
00000000 l    df *ABS*	00000000 alt_open.c
0109b9f0 l     F .text	0000003c alt_get_errno
0109ba2c l     F .text	000000c4 alt_file_locked
00000000 l    df *ABS*	00000000 alt_tick.c
00000000 l    df *ABS*	00000000 altera_nios2_gen2_irq.c
00000000 l    df *ABS*	00000000 alt_find_file.c
00000000 l    df *ABS*	00000000 alt_get_fd.c
00000000 l    df *ABS*	00000000 alt_icache_flush.c
00000000 l    df *ABS*	00000000 atexit.c
00000000 l    df *ABS*	00000000 exit.c
00000000 l    df *ABS*	00000000 memcmp.c
00000000 l    df *ABS*	00000000 __atexit.c
00000000 l    df *ABS*	00000000 __call_atexit.c
010a06e8 g     O .bss	00000004 alt_instruction_exception_handler
0108278c g     F .text	00000094 _ZN6CQueue3PopEv
01086834 g     F .text	00000028 __cxa_free_exception
010851ac g     F .text	00000008 _ZNKSt9type_info15__is_function_pEv
01094e28 g     F .text	00000074 _mprec_log10
01086464 g     F .text	00000018 _ZSt10unexpectedv
01094f14 g     F .text	0000008c __any_on
010985e8 g     F .text	00000054 _isatty_r
0109cc40 g     O .rodata	00000028 __mprec_tinytens
01099f50 g     F .text	0000007c alt_main
0108c0b8 g     F .text	000000c0 _puts_r
010a07b4 g     O .bss	00000100 alt_irq
01086960 g     F .text	00000004 _ZN10__cxxabiv115__forced_unwindD1Ev
01087214 g     F .text	00000014 fabs
0109863c g     F .text	00000060 _lseek_r
0108b3d0 g     F .text	00000020 .hidden _Unwind_GetIPInfo
0109ea08 g       *ABS*	00000000 __flash_rwdata_start
010994ec g     F .text	00000088 .hidden __eqdf2
01086598 g     F .text	00000084 __cxa_rethrow
0108b35c g     F .text	00000014 .hidden _Unwind_SjLj_Unregister
010864a0 g     F .text	00000014 _ZSt14set_unexpectedPFvvE
0108254c g     F .text	00000074 _ZN6CQueueC2Ei
0108b3c0 g     F .text	00000010 .hidden _Unwind_GetIP
010a08b4 g       *ABS*	00000000 __alt_heap_start
0108c484 g     F .text	0000005c _kill_r
0109e978  w    O .rwdata	00000008 _ZTI8CDcMotor
01081e60 g     F .text	000000f4 _ZN3MPU11getRotationEPsS0_S0_
010a0672 g     O .bss	00000001 cmd_ut
01080b08 g     F .text	00000038 _ZN4CCar17Set_TurnDirectionEh
01080704 g     F .text	00000160 _ZN4CCarD2Ev
0108c07c g     F .text	0000003c printf
01098854 g     F .text	0000009c _wcrtomb_r
0108c24c g     F .text	00000084 _signal_r
01095650 g     F .text	0000005c __sseek
01092ebc g     F .text	00000010 __sinit
010986fc g     F .text	00000140 __swbuf_r
010868b0 g     F .text	0000002c __cxa_free_dependent_exception
01084c1c g     F .text	00000010 _ZN10__cxxabiv120__si_class_type_infoD2Ev
01093984 g     F .text	0000007c _setlocale_r
0108213c g     F .text	00000048 _ZN8CDcMotorD1Ev
0109c5bc  w    O .rodata	00000025 _ZTSN10__cxxabiv120__si_class_type_infoE
010820bc g     F .text	00000080 _ZN8CDcMotorC1Eii
01092d24 g     F .text	00000068 __sfmoreglue
01099ff0 g     F .text	00000024 __malloc_unlock
01080ff8 g     F .text	00000098 _ZN3MPUC2Emh
01081110 g     F .text	000000f0 _ZN3MPU8WriteRegEmhh
0109b220 g     F .text	00000090 alt_up_rs232_read_fd
01086960 g     F .text	00000004 _ZN10__cxxabiv115__forced_unwindD2Ev
01086358 g     F .text	00000020 _ZSt18uncaught_exceptionv
01087904 g     F .text	00000440 .hidden __divsf3
010819a4 g     F .text	00000064 _ZN3MPU10getMotion9EPsS0_S0_S0_S0_S0_S0_S0_S0_
01080704 g     F .text	00000160 _ZN4CCarD1Ev
010869a8 g     F .text	00000020 __cxa_deleted_virtual
01081770 g     F .text	00000064 _ZN3MPU14setClockSourceEh
01093e48 g     F .text	0000015c memmove
01086938 g     F .text	00000004 _ZNSt9exceptionD2Ev
01092ea4 g     F .text	00000018 _cleanup
01093fa4 g     F .text	000000a8 _Balloc
01088820 g     F .text	00000070 .hidden __fixsfsi
01080d58 g     F .text	00000054 _ZN5CIrRxD1Ev
01082854 g     F .text	00000098 _ZN6KalmanC2Ev
01089c38 g     F .text	000000dc .hidden __gtdf2
0109c754  w    O .rodata	00000014 _ZTVSt13bad_exception
0109bde8 g     F .text	00000024 altera_nios2_gen2_irq_init
01081c80 g     F .text	00000078 _ZN3MPU16getAccelerationXEv
01080000 g     F .entry	0000001c __reset
01082f90 g     F .text	000000bc _Z10read_powerhPt
0108b40c g     F .text	00000008 .hidden _Unwind_GetRegionStart
01080864 g     F .text	00000054 _ZN4CCar5StartEv
01080020 g       *ABS*	00000000 __flash_exceptions_start
0109858c g     F .text	0000005c _fstat_r
010a06c0 g     O .bss	00000004 errno
01080b40 g     F .text	00000044 _ZN4CCar15Set_TurnFORWARDEv
010955cc g     F .text	00000008 __seofread
010813e8 g     F .text	0000013c _ZN3MPU9writeBitsEmhhhh
01095884 g     F .text	0000123c ___svfiprintf_internal_r
0108b5e8 g     F .text	00000074 .hidden _Unwind_Backtrace
01080f14 g     F .text	000000b0 _ZN5CIrRx4TestEv
010a06d8 g     O .bss	00000004 alt_argv
010a6960 g       *ABS*	00000000 _gp
0109a260 g     F .text	00000030 usleep
0109e970  w    O .rwdata	00000005 _ZTS3MPU
0108833c g     F .text	000004e4 .hidden __subsf3
01099968 g     F .text	00000020 getpid
01085fb8 g     F .text	00000230 __cxa_call_unexpected
010861e8 g     F .text	00000008 __cxa_get_exception_ptr
010833bc g     F .text	00000074 _Z12MPU_INT_INITv
0109d754 g     O .rwdata	00000180 alt_fd_list
0108b4fc g     F .text	00000044 .hidden _Unwind_SjLj_ForcedUnwind
0108b38c g     F .text	00000018 .hidden _Unwind_GetCFA
0108647c g     F .text	00000014 _ZSt13set_terminatePFvvE
0109b7ec g     F .text	00000090 alt_find_dev
01093d00 g     F .text	00000148 memcpy
0108685c g     F .text	00000054 __cxa_allocate_dependent_exception
01092b74 g     F .text	0000000c _cleanup_r
01084f58 g     F .text	00000018 _ZNK10__cxxabiv117__class_type_info20__do_find_public_srcEiPKvPKS0_S2_
0108ada8 g     F .text	000000dc .hidden __floatsidf
010a0644 g     O .bss	00000004 Gyro_Turn
0109b974 g     F .text	0000007c alt_io_redirect
01099574 g     F .text	000000f4 .hidden __ltdf2
0109c498 g       *ABS*	00000000 __DTOR_END__
010a0670 g     O .bss	00000001 stop_flag
01084f70 g     F .text	00000010 _ZN10__cxxabiv117__class_type_infoD1Ev
010a0650 g     O .bss	00000004 x_angle
0109b1ac g     F .text	00000074 alt_up_rs232_read_data
0108c178 g     F .text	00000014 puts
0109c048 g     F .text	0000009c alt_exception_cause_generated_bad_addr
01080cdc g     F .text	0000007c _ZN5CIrRxC1Emmm
01080348 g     F .text	000000c8 I2C_start
01095504 g     F .text	00000074 __fpclassifyd
01094d84 g     F .text	000000a4 __ratio
01098030 g     F .text	0000001c __vfiprintf_internal
0109aac0 g     F .text	0000021c altera_avalon_jtag_uart_read
0108b6f0 g     F .text	00000014 malloc
0108c04c g     F .text	00000030 _printf_r
01080000 g       *ABS*	00000000 __alt_mem_onchip_memory2_0
01087380 g     F .text	00000064 .hidden __udivsi3
01099b44 g     F .text	000000a4 isatty
0108c2d0 g     F .text	000000bc _raise_r
0109cc90 g     O .rodata	000000c8 __mprec_tens
01093a00 g     F .text	0000000c __locale_charset
01081524 g     F .text	0000010c _ZN3MPU8readBitsEmhhhPh
01087e78 g     F .text	000000c8 .hidden __lesf2
0109cdd4 g     O .rwdata	000000b4 gCommandList
0109bfb8 g     F .text	00000090 alt_icache_flush
010a06bc g     O .bss	00000004 __malloc_top_pad
010a0668 g     O .bss	00000004 flag
0108c4e0 g     F .text	00000004 _getpid_r
010817d4 g     F .text	00000064 _ZN3MPU21setFullScaleGyroRangeEh
0109e9d8 g     O .rwdata	00000004 __mb_cur_max
01093a30 g     F .text	0000000c _localeconv_r
01080abc g     F .text	0000004c _ZN4CCar18Set_DriveDirectionEh
010943b0 g     F .text	0000003c __i2b
01093340 g     F .text	000004bc __sfvwrite_r
010850f0 g     F .text	000000b8 _ZNK10__cxxabiv117__class_type_info10__do_catchEPKSt9type_infoPPvj
0108c38c g     F .text	000000a8 __sigtramp_r
0109e968  w    O .rwdata	00000008 _ZTI3MPU
010a0680 g     O .bss	00000004 velocity_pwm
0108c18c g     F .text	00000054 _sbrk_r
0109c688  w    O .rodata	00000020 _ZTVSt9type_info
01081de8 g     F .text	00000078 _ZN3MPU14getTemperatureEv
01080958 g     F .text	00000044 _ZN4CCar5PauseEv
0109869c g     F .text	00000060 _read_r
01086940 g     F .text	0000000c _ZNKSt9exception4whatEv
0109e9f0 g     O .rwdata	00000004 alt_max_fd
0109b128 g     F .text	00000044 alt_up_rs232_check_parity
01080c38 g     F .text	000000a4 _Z6ir_isrPvm
01098280 g     F .text	000000f0 _fclose_r
01092b3c g     F .text	00000030 fflush
010a06b8 g     O .bss	00000004 __malloc_max_sbrked_mem
01099988 g     F .text	00000180 alt_irq_register
01081630 g     F .text	00000080 _ZN3MPU10initializeEv
0108ae84 g     F .text	00000110 .hidden __extendsfdf2
01081d70 g     F .text	00000078 _ZN3MPU16getAccelerationZEv
01080de4 g     F .text	00000094 _ZN5CIrRx6EnableEv
01088aa4 g     F .text	000008ac .hidden __adddf3
01087d44 g     F .text	00000078 .hidden __nesf2
010a0688 g     O .bss	00000004 data32
010a0676 g     O .bss	00000001 led1
01080dac g     F .text	00000038 _ZN5CIrRxD0Ev
0109c5f0  w    O .rodata	0000002c _ZTVN10__cxxabiv120__si_class_type_infoE
01082690 g     F .text	00000064 _ZN6CQueue6IsFullEv
01094b2c g     F .text	0000010c __b2d
01098fb4 g     F .text	00000538 .hidden __umoddi3
01099e7c g     F .text	000000d4 lseek
01084fb4 g     F .text	0000006c _ZNK10__cxxabiv117__class_type_info11__do_upcastEPKS0_PKvRNS0_15__upcast_resultE
01086378 g     F .text	00000004 _ZdlPv
0109e9d0 g     O .rwdata	00000004 _global_impure_ptr
010810d8 g     F .text	00000038 _ZN3MPUD0Ev
01094fa0 g     F .text	00000564 _realloc_r
010a08b4 g       *ABS*	00000000 __bss_end
0109bce0 g     F .text	00000108 alt_tick
0108b344 g     F .text	00000018 .hidden _Unwind_SjLj_Register
01080580 g     F .text	00000184 _ZN4CCarC2Eiiii
01098a3c g     F .text	00000578 .hidden __udivdi3
010984e8 g     F .text	00000024 _fputwc_r
0109cc68 g     O .rodata	00000028 __mprec_bigtens
01094194 g     F .text	00000104 __s2b
0108b6c0 g     F .text	00000018 abort
01099668 g     F .text	000000a8 .hidden __floatunsidf
0109486c g     F .text	00000060 __mcmp
010a0648 g     O .bss	00000004 distance
010862a4 g     F .text	000000b4 __cxa_end_catch
01080d58 g     F .text	00000054 _ZN5CIrRxD2Ev
01092edc g     F .text	00000018 __fp_lock_all
0108693c g     F .text	00000004 _ZNSt13bad_exceptionD2Ev
0109bc44 g     F .text	0000009c alt_alarm_stop
01082820 g     F .text	00000034 _ZN6CQueue5ClearEv
0108ca24 g     F .text	0000001c strtol
010a06d0 g     O .bss	00000004 alt_irq_active
01080c00 g     F .text	00000038 _ZN4CCar13Set_TurnRIGHTEv
0108643c g     F .text	00000018 _ZSt9terminatev
010800fc g     F .exceptions	000000d8 alt_irq_handler
0109d72c g     O .rwdata	00000028 alt_dev_null
01086968 g     F .text	00000004 _ZN10__cxxabiv119__foreign_exceptionD2Ev
01083b44 g     F .text	000000a8 _Z7balanceff
0109c61c  w    O .rodata	00000022 _ZTSN10__cxxabiv117__class_type_infoE
010a0684 g     O .bss	00000004 turn_pwm
0109b604 g     F .text	00000048 alt_dcache_flush_all
01094298 g     F .text	00000068 __hi0bits
0109e9ac  w    O .rwdata	00000008 _ZTISt9exception
0108ad28 g     F .text	00000080 .hidden __fixdfsi
01081fcc g     F .text	00000078 _ZN3MPU12getRotationYEv
0109ea08 g       *ABS*	00000000 __ram_rwdata_end
010851a8 g     F .text	00000004 _ZNSt9type_infoD1Ev
01082d70 g     F .text	00000220 _Z9Get_Anglev
0109e9e8 g     O .rwdata	00000008 alt_dev_list
01086968 g     F .text	00000004 _ZN10__cxxabiv119__foreign_exceptionD1Ev
0109a2cc g     F .text	000000f8 write
010869cc g     F .text	000002c0 __ieee754_atan2
01080a5c g     F .text	00000060 _ZN4CCar12meaure_speedEv
010851bc g     F .text	00000004 _ZNSt9type_infoD0Ev
01087dbc g     F .text	000000bc .hidden __gtsf2
0109cdd4 g       *ABS*	00000000 __ram_rodata_end
010998b8 g     F .text	000000b0 fstat
0109b2b0 g     F .text	00000094 alt_up_rs232_write_fd
01099c24 g     F .text	00000130 kill
01099574 g     F .text	000000f4 .hidden __ledf2
0109c580  w    O .rodata	00000010 _ZTV6CQueue
010945e4 g     F .text	00000140 __pow5mult
010a0674 g     O .bss	00000001 led
01096bd4 g     F .text	0000145c ___vfiprintf_internal_r
010a06cc g     O .bss	00000004 __nlocale_changed
010873e4 g     F .text	00000058 .hidden __umodsi3
010851b4 g     F .text	00000008 _ZNKSt9type_info11__do_upcastEPKN10__cxxabiv117__class_type_infoEPPv
0109c4d8  w    O .rodata	0000000c _ZTI5CIrRx
0109c564  w    O .rodata	00000010 _ZTV8CDcMotor
01086490 g     F .text	00000010 _ZSt13get_terminatev
010a08b4 g       *ABS*	00000000 end
010826f4 g     F .text	00000098 _ZN6CQueue4PushEm
010a065c g     O .bss	00000004 Movement
010a0664 g     O .bss	00000004 mode
0108b6e4 g     F .text	0000000c _atoi_r
0108b5d0 g     F .text	00000018 .hidden _Unwind_DeleteException
0109a604 g     F .text	000000b4 altera_avalon_jtag_uart_init
010801d4 g     F .exceptions	00000074 alt_instruction_exception_entry
01085020 g     F .text	000000d0 _ZNK10__cxxabiv117__class_type_info12__do_dyncastEiNS0_10__sub_kindEPKS0_PKvS3_S5_RNS0_16__dyncast_resultE
0109c489 g       *ABS*	00000000 __CTOR_LIST__
010c93e0 g       *ABS*	00000000 __alt_stack_pointer
0109af7c g     F .text	00000074 alt_avalon_timer_sc_init
0108b65c g     F .text	00000064 .hidden __clzsi2
01084ee0 g     F .text	00000078 _ZNK10__cxxabiv117__class_type_info11__do_upcastEPKS0_PPv
0109acdc g     F .text	00000224 altera_avalon_jtag_uart_write
01080908 g     F .text	00000050 _ZN4CCar9Stop_fastEv
01082854 g     F .text	00000098 _ZN6KalmanC1Ev
01092ecc g     F .text	00000004 __sfp_lock_acquire
0109c6dc  w    O .rodata	00000012 _ZTSSt13bad_exception
01093c1c g     F .text	000000e4 memchr
0108ec18 g     F .text	000021f8 ___vfprintf_internal_r
0108c4e4 g     F .text	00000058 _sprintf_r
01093030 g     F .text	00000310 _free_r
01080cdc g     F .text	0000007c _ZN5CIrRxC2Emmm
0108170c g     F .text	00000064 _ZN3MPU11getDeviceIDEv
01093a0c g     F .text	00000010 __locale_mb_cur_max
0109c2c4 g     F .text	00000180 __call_exitprocs
010808b8 g     F .text	00000050 _ZN4CCar4StopEv
01083e44 g     F .text	0000018c _Z4turnf
010a06c8 g     O .bss	00000004 __mlocale_changed
0109e9c4 g     O .rwdata	00000004 __malloc_sbrk_base
01080248 g     F .text	0000004c _start
010a06e0 g     O .bss	00000004 _alt_tick_rate
01081368 g     F .text	00000080 _ZN3MPU9writeBitsEmhhb
0109c678  w    O .rodata	0000000d _ZTSSt9type_info
01086988 g     F .text	00000020 __cxa_pure_virtual
01094724 g     F .text	00000148 __lshift
010869c8 g     F .text	00000004 atan2
010a06e4 g     O .bss	00000004 _alt_nticks
0109e995 g     O .rwdata	00000001 flag1
0108c448 g     F .text	00000018 signal
0109a050 g     F .text	000000fc read
0109a430 g     F .text	00000070 alt_sys_init
01088890 g     F .text	00000124 .hidden __floatsisf
010956b4 g     F .text	000001d0 __ssprint_r
01080fc4 g     F .text	00000034 _ZN5CIrRx14ClearInterruptEv
0109c1ac g     F .text	00000118 __register_exitproc
0108c71c g     F .text	000000d0 strncmp
01084c60 g     F .text	00000160 _ZNK10__cxxabiv120__si_class_type_info12__do_dyncastEiNS_17__class_type_info10__sub_kindEPKS1_PKvS4_S6_RNS1_16__dyncast_resultE
0109b0ec g     F .text	0000003c alt_up_rs232_get_available_space_in_write_FIFO
01082480 g     F .text	00000074 _ZN8CDcMotor5StartEv
010943ec g     F .text	000001f8 __multiply
0109a968 g     F .text	00000068 altera_avalon_jtag_uart_close
0109cdd4 g       *ABS*	00000000 __ram_rwdata_start
0108b42c g     F .text	000000d0 .hidden _Unwind_SjLj_RaiseException
010a06ec g     O .bss	00000018 mpu
0109c498 g       *ABS*	00000000 __ram_rodata_start
010a078c g     O .bss	00000028 __malloc_current_mallinfo
0108b540 g     F .text	00000044 .hidden _Unwind_SjLj_Resume
01087d44 g     F .text	00000078 .hidden __eqsf2
01094c38 g     F .text	0000014c __d2b
0109c77c  w    O .rodata	00000014 _ZTVN10__cxxabiv119__foreign_exceptionE
010851a8 g     F .text	00000004 _ZNSt9type_infoD2Ev
0108696c g     F .text	00000004 _ZN10__cxxabiv119__foreign_exceptionD0Ev
01084e5c g     F .text	00000084 _ZNK10__cxxabiv120__si_class_type_info11__do_upcastEPKNS_17__class_type_infoEPKvRNS1_15__upcast_resultE
0109a4a0 g     F .text	00000060 altera_avalon_jtag_uart_read_fd
0109bf14 g     F .text	000000a4 alt_get_fd
0109b4ac g     F .text	00000158 alt_busy_sleep
0109e9bc  w    O .rwdata	00000008 _ZTIN10__cxxabiv119__foreign_exceptionE
01098168 g     F .text	00000054 _close_r
0108254c g     F .text	00000074 _ZN6CQueueC1Ei
0109c130 g     F .text	0000007c memcmp
0108189c g     F .text	00000058 _ZN3MPU13setSample_divEh
0109a560 g     F .text	00000050 altera_avalon_jtag_uart_close_fd
010a08b4 g       *ABS*	00000000 __alt_stack_base
0109a5b0 g     F .text	00000054 altera_avalon_jtag_uart_ioctl_fd
01084c1c g     F .text	00000010 _ZN10__cxxabiv120__si_class_type_infoD1Ev
01090ee8 g     F .text	00000154 __swsetup_r
0108b584 g     F .text	0000004c .hidden _Unwind_SjLj_Resume_or_Rethrow
01089350 g     F .text	000008e8 .hidden __divdf3
01092d8c g     F .text	00000118 __sfp
01094e9c g     F .text	00000078 __copybits
010851ac g     F .text	00000008 _ZNKSt9type_info14__is_pointer_pEv
0108194c g     F .text	00000058 _ZN3MPU7setDLPFEh
0109ce88 g     O .rwdata	00000408 __malloc_av_
01092ed8 g     F .text	00000004 __sinit_lock_release
01089d14 g     F .text	00000718 .hidden __muldf3
01095578 g     F .text	00000054 __sread
01083bec g     F .text	00000258 _Z5speedv
0109e990 g     O .rwdata	00000004 PI
0109c740  w    O .rodata	00000014 _ZTVSt9exception
01086964 g     F .text	00000004 _ZN10__cxxabiv115__forced_unwindD0Ev
0109b04c g     F .text	00000060 alt_up_rs232_disable_read_interrupt
0109be0c g     F .text	00000108 alt_find_file
0109b688 g     F .text	000000a4 alt_dev_llist_insert
01099fcc g     F .text	00000024 __malloc_lock
0109a1b0 g     F .text	000000b0 sbrk
0108ca40 g     F .text	000021d8 ___svfprintf_internal_r
01080580 g     F .text	00000184 _ZN4CCarC1Eiiii
0109c574  w    O .rodata	0000000a _ZTS8CDcMotor
0109c64c  w    O .rodata	0000002c _ZTVN10__cxxabiv117__class_type_infoE
01086508 g     F .text	00000090 __cxa_throw
01092ae0 g     F .text	0000005c _fflush_r
0108b3f0 g     F .text	00000010 .hidden _Unwind_SetIP
010821bc g     F .text	00000080 _ZN8CDcMotor12SetDirectionEb
010981bc g     F .text	000000c4 _calloc_r
010818f4 g     F .text	00000058 _ZN3MPU12setIntEnableEh
010a063c g       *ABS*	00000000 __bss_start
0108bf24 g     F .text	00000128 memset
010a0654 g     O .bss	00000004 demo_left
01084324 g     F .text	000007ac main
010a06dc g     O .bss	00000004 alt_envp
010a06b4 g     O .bss	00000004 __malloc_max_total_mem
010a0678 g     O .bss	00000001 led3
0109a500 g     F .text	00000060 altera_avalon_jtag_uart_write_fd
010a0675 g     O .bss	00000001 led0
0109883c g     F .text	00000018 __swbuf
01086970 g     F .text	0000000c __cxa_get_globals_fast
01087e78 g     F .text	000000c8 .hidden __ltsf2
01080e78 g     F .text	0000009c _ZN5CIrRx7DisableEv
01082044 g     F .text	00000078 _ZN3MPU12getRotationZEv
010956ac g     F .text	00000008 __sclose
010c93e0 g       *ABS*	00000000 __alt_heap_limit
01098370 g     F .text	00000014 fclose
0108304c g     F .text	000001cc _Z14CommandParsingPcPiS0_
0108c7ec g     F .text	00000238 _strtol_r
0108af94 g     F .text	000001a8 .hidden __truncdfsf2
01081200 g     F .text	00000168 _ZN3MPU9readBytesEmhtPh
0109123c g     F .text	00001688 _dtoa_r
0108b718 g     F .text	0000080c _malloc_r
010989b0 g     F .text	00000030 __ascii_wctomb
0108694c g     F .text	0000000c _ZNKSt13bad_exception4whatEv
0109e9f4 g     O .rwdata	00000004 alt_errno
0108c460 g     F .text	00000010 _init_signal
0109c640  w    O .rodata	0000000c _ZTIN10__cxxabiv117__class_type_infoE
010a0658 g     O .bss	00000004 demo_right
010937fc g     F .text	000000c4 _fwalk
0108693c g     F .text	00000004 _ZNSt13bad_exceptionD1Ev
01082434 g     F .text	0000004c _ZN8CDcMotor9Stop_fastEv
01087288 g     F .text	00000084 .hidden __divsi3
01092f0c g     F .text	00000124 _malloc_trim_r
010a064c g     O .bss	00000004 vol
0109c494 g       *ABS*	00000000 __CTOR_END__
01087f40 g     F .text	000003fc .hidden __mulsf3
01080410 g     F .text	00000098 I2C_read
0109e998 g     O .rwdata	00000004 temp32
0108c5a8 g     F .text	000000dc strcmp
0109c498 g       *ABS*	00000000 __flash_rodata_start
0109c768  w    O .rodata	00000014 _ZTVN10__cxxabiv115__forced_unwindE
0109c494 g       *ABS*	00000000 __DTOR_LIST__
0109e960  w    O .rwdata	00000007 _ZTS5CIrRx
0109b344 g     F .text	0000003c alt_up_rs232_open_dev
010994ec g     F .text	00000088 .hidden __nedf2
01082650 g     F .text	00000040 _ZN6CQueue7IsEmptyEv
0109a3f8 g     F .text	00000038 alt_irq_init
0109a14c g     F .text	00000064 alt_release_fd
01084c2c g     F .text	00000034 _ZN10__cxxabiv120__si_class_type_infoD0Ev
01086c8c g     F .text	00000588 atan
0108c53c g     F .text	0000006c sprintf
0109c80c g     O .rodata	00000100 .hidden __clz_tab
010a06c4 g     O .bss	00000004 _PathLocale
01081b8c g     F .text	000000f4 _ZN3MPU15getAccelerationEPsS0_S0_
0109c0e4 g     F .text	00000014 atexit
010a0660 g     O .bss	00000004 cnt_ng
01087dbc g     F .text	000000bc .hidden __gesf2
01098108 g     F .text	00000060 _write_r
01093a3c g     F .text	00000018 setlocale
0108b424 g     F .text	00000008 .hidden _Unwind_GetTextRelBase
0108661c g     F .text	00000058 __cxa_call_terminate
01081a08 g     F .text	00000184 _ZN3MPU10getMotion6EPsS0_S0_S0_S0_S0_
0109e9d4 g     O .rwdata	00000004 _impure_ptr
0109e9b4  w    O .rwdata	00000008 _ZTIN10__cxxabiv115__forced_unwindE
010a06d4 g     O .bss	00000004 alt_argc
010928c4 g     F .text	0000021c __sflush_r
0109b78c g     F .text	00000060 _do_dtors
01093a28 g     F .text	00000008 __locale_cjk_lang
01083430 g     F .text	00000054 _Z15mpu_init_enableb
010a0673 g     O .bss	00000001 pick_up
010864b4 g     F .text	00000010 _ZSt14get_unexpectedv
0109e994 g     O .rwdata	00000001 env
01080020 g       .exceptions	00000000 alt_irq_entry
010825c0 g     F .text	00000058 _ZN6CQueueD1Ev
01081090 g     F .text	00000048 _ZN3MPUD1Ev
01094ac8 g     F .text	00000064 __ulp
0108b414 g     F .text	00000008 .hidden _Unwind_FindEnclosingFunction
01092ef4 g     F .text	00000018 __fp_unlock_all
0109e9e0 g     O .rwdata	00000008 alt_fs_list
0109c71c  w    O .rodata	00000024 _ZTSN10__cxxabiv119__foreign_exceptionE
010820bc g     F .text	00000080 _ZN8CDcMotorC2Eii
01081cf8 g     F .text	00000078 _ZN3MPU16getAccelerationYEv
0109c554  w    O .rodata	00000010 _ZTV3MPU
01081838 g     F .text	00000064 _ZN3MPU22setFullScaleAccelRangeEh
0109aff0 g     F .text	0000005c alt_up_rs232_enable_read_interrupt
01083fd0 g     F .text	00000354 _Z11MPU_INT_ISRPvm
0108b400 g     F .text	0000000c .hidden _Unwind_GetLanguageSpecificData
01082618 g     F .text	00000038 _ZN6CQueueD0Ev
0109b16c g     F .text	00000040 alt_up_rs232_write_data
010861f0 g     F .text	000000b4 __cxa_begin_catch
01084f70 g     F .text	00000010 _ZN10__cxxabiv117__class_type_infoD2Ev
01086454 g     F .text	00000010 _ZN10__cxxabiv112__unexpectedEPFvvE
01083218 g     F .text	000000b8 _Z10uart_writePc
01080294 g     F .text	000000b4 I2C_init
01080020 g       *ABS*	00000000 __ram_exceptions_start
01093a54 g     F .text	0000000c localeconv
0108213c g     F .text	00000048 _ZN8CDcMotorD2Ev
0108695c g     F .text	00000004 _ZNSt13bad_exceptionD0Ev
01083364 g     F .text	00000058 _Z13Restart_Checkv
0109e9a4 g     O .rwdata	00000004 _ZN10__cxxabiv119__terminate_handlerE
010867d4 g     F .text	00000060 __cxa_allocate_exception
0109c5e4  w    O .rodata	0000000c _ZTIN10__cxxabiv120__si_class_type_infoE
0109ea08 g       *ABS*	00000000 _edata
010a0671 g     O .bss	00000001 demo
0109c4c8  w    O .rodata	00000010 _ZTV5CIrRx
01081090 g     F .text	00000048 _ZN3MPUD2Ev
010a08b4 g       *ABS*	00000000 _end
010859b8 g     F .text	00000600 __gxx_personality_sj0
01098384 g     F .text	00000164 __fputwc
01080248 g       *ABS*	00000000 __ram_exceptions_end
0109a9d0 g     F .text	000000f0 altera_avalon_jtag_uart_ioctl
010a063c g     O .bss	00000004 Angle_Balance
01086938 g     F .text	00000004 _ZNSt9exceptionD1Ev
0109e988  w    O .rwdata	00000008 _ZTS6CQueue
010955d4 g     F .text	0000007c __swrite
0109e9c8 g     O .rwdata	00000004 __malloc_trim_threshold
01080b84 g     F .text	00000044 _ZN4CCar16Set_TurnBACKWARDEv
01093a1c g     F .text	0000000c __locale_msgcharset
0109c0f8 g     F .text	00000038 exit
0108b3a4 g     F .text	0000001c .hidden _Unwind_SetGR
01080ff8 g     F .text	00000098 _ZN3MPUC1Emh
010938c0 g     F .text	000000c4 _fwalk_reent
01084dc0 g     F .text	0000009c _ZNK10__cxxabiv120__si_class_type_info20__do_find_public_srcEiPKvPKNS_17__class_type_infoES2_
010889b4 g     F .text	000000f0 .hidden __floatunsisf
010948cc g     F .text	000001fc __mdiff
0108637c g     F .text	000000c0 _ZN10__cxxabiv111__terminateEPFvvE
0108730c g     F .text	00000074 .hidden __modsi3
0109e9cc g     O .rwdata	00000004 __ctype_ptr__
010c93e0 g       *ABS*	00000000 __alt_data_end
01080020 g     F .exceptions	00000000 alt_exception
01092ed0 g     F .text	00000004 __sfp_lock_release
0109c6f0  w    O .rodata	0000000c _ZTISt13bad_exception
0108b6d8 g     F .text	0000000c atoi
0109c992 g     O .rodata	00000101 _ctype_
010823c0 g     F .text	00000074 _ZN8CDcMotor4StopEv
01087228 g     F .text	00000060 .hidden __fixunssfsi
01099848 g     F .text	00000034 _exit
0109b380 g     F .text	0000012c alt_alarm_start
010816b0 g     F .text	0000005c _ZN3MPU15setSleepEnabledEb
0108b370 g     F .text	0000001c .hidden _Unwind_GetGR
0108697c g     F .text	0000000c __cxa_get_globals
01093a60 g     F .text	000001bc __smakebuf_r
0109e9a8 g     O .rwdata	00000004 _ZN10__cxxabiv120__unexpected_handlerE
010a0704 g     O .bss	00000028 kalman
0108c684 g     F .text	00000098 strlen
0108c1e0 g     F .text	0000006c _init_signal_r
0109e99c  w    O .rwdata	00000008 _ZTISt9type_info
0109baf0 g     F .text	00000154 open
01089c38 g     F .text	000000dc .hidden __gedf2
0109c6cc  w    O .rodata	0000000d _ZTSSt9exception
010a067c g     O .bss	00000004 balance_pwm
010824f4 g     F .text	00000058 _ZN8CDcMotor8GetCountEv
0109e9dc g     O .rwdata	00000004 __wctomb
01086958 g     F .text	00000004 _ZNSt9exceptionD0Ev
01096bbc g     F .text	00000018 __sprint_r
0109b87c g     F .text	00000034 alt_icache_flush_all
0108223c g     F .text	00000184 _ZN8CDcMotor8SetSpeedEf
01080a34 g     F .text	00000028 _ZN4CCar9IsStartedEv
010809f4 g     F .text	00000040 _ZN4CCar8SetSpeedEf
0108b41c g     F .text	00000008 .hidden _Unwind_GetDataRelBase
0109e9f8 g     O .rwdata	00000004 alt_priority_mask
010832d0 g     F .text	00000094 _Z13UnNomal_Checkv
01090e10 g     F .text	0000001c __vfprintf_internal
0109e980  w    O .rwdata	00000008 _ZTI6CQueue
010989e0 g     F .text	0000005c _wctomb_r
010a066c g     O .bss	00000004 ng_count
010a0640 g     O .bss	00000004 Gyro_Balance
01082184 g     F .text	00000038 _ZN8CDcMotorD0Ev
0108a42c g     F .text	000008fc .hidden __subdf3
01081f54 g     F .text	00000078 _ZN3MPU12getRotationXEv
010828ec g     F .text	00000484 _ZN6Kalman8getAngleEff
01094300 g     F .text	000000b0 __lo0bits
0109ea00 g     O .rwdata	00000008 alt_alarm_list
0109b72c g     F .text	00000060 _do_ctors
0108c470 g     F .text	00000014 __sigtramp
010825c0 g     F .text	00000058 _ZN6CQueueD2Ev
0109b0ac g     F .text	00000040 alt_up_rs232_get_used_space_in_read_FIFO
010988f0 g     F .text	000000c0 wcrtomb
010a0677 g     O .bss	00000001 led2
0108099c g     F .text	00000058 _ZN4CCar8SetSpeedEff
0109974c g     F .text	000000d0 close
0108743c g     F .text	000004c8 .hidden __addsf3
0109c6fc  w    O .rodata	00000020 _ZTSN10__cxxabiv115__forced_unwindE
01099dbc g     F .text	00000084 alt_load
010a072c g     O .bss	00000030 Car
010851c0 g     F .text	00000044 _ZNKSt9type_info10__do_catchEPKS_PPvj
010804a8 g     F .text	000000d8 I2C_write
0109850c g     F .text	00000080 fputwc
0108c434 g     F .text	00000014 raise
01083484 g     F .text	000006c0 _Z8set_parav
0108b704 g     F .text	00000014 free
01092ed4 g     F .text	00000004 __sinit_lock_acquire
01080bc8 g     F .text	00000038 _ZN4CCar12Set_TurnLEFTEv
01094074 g     F .text	00000120 __multadd
01084f80 g     F .text	00000034 _ZN10__cxxabiv117__class_type_infoD0Ev
0109404c g     F .text	00000028 _Bfree
010a075c g     O .bss	00000020 IR



Disassembly of section .entry:

01080000 <__reset>:
#if NIOS2_ICACHE_SIZE > 0 && defined(ALT_ALLOW_CODE_AT_RESET) && (!defined(ALT_SIM_OPTIMIZE) || defined(NIOS2_ECC_PRESENT))
    /* Assume the instruction cache size is always a power of two. */
#if NIOS2_ICACHE_SIZE > 0x8000
    movhi r2, %hi(NIOS2_ICACHE_SIZE)
#else
    movui r2, NIOS2_ICACHE_SIZE
 1080000:	00840014 	movui	r2,4096
#endif

0:
    initi r2
 1080004:	1001483a 	initi	r2
    addi r2, r2, -NIOS2_ICACHE_LINE_SIZE
 1080008:	10bff804 	addi	r2,r2,-32
    bgt r2, zero, 0b
 108000c:	00bffd16 	blt	zero,r2,1080004 <__alt_data_end+0xfffb6c24>
 * Jump to the _start entry point in the .text section if reset code
 * is allowed or if optimizing for RTL simulation.
 */
#if defined(ALT_ALLOW_CODE_AT_RESET) || defined(ALT_SIM_OPTIMIZE)
    /* Jump to the _start entry point in the .text section. */
    movhi r1, %hi(_start)
 1080010:	00404234 	movhi	at,264
    ori r1, r1, %lo(_start)
 1080014:	08409214 	ori	at,at,584
    jmp r1
 1080018:	0800683a 	jmp	at
 108001c:	00000000 	call	0 <__reset-0x1080000>

Disassembly of section .exceptions:

01080020 <alt_exception>:

#else /* ALT_EXCEPTION_STACK disabled */
        /* 
         * Reserve space on normal stack for registers about to be pushed.
         */
        addi  sp, sp, -76
 1080020:	deffed04 	addi	sp,sp,-76
         * documentation for details).
         *
         * Leave a gap in the stack frame at 4(sp) for the muldiv handler to
         * store zero into.
         */
        stw   ra,  0(sp)
 1080024:	dfc00015 	stw	ra,0(sp)
        stw   r1,   8(sp)
 1080028:	d8400215 	stw	at,8(sp)
        stw   r2,  12(sp)
 108002c:	d8800315 	stw	r2,12(sp)
        stw   r3,  16(sp)
 1080030:	d8c00415 	stw	r3,16(sp)
        stw   r4,  20(sp)
 1080034:	d9000515 	stw	r4,20(sp)
        stw   r5,  24(sp)
 1080038:	d9400615 	stw	r5,24(sp)
        stw   r6,  28(sp)
 108003c:	d9800715 	stw	r6,28(sp)
        stw   r7,  32(sp)
 1080040:	d9c00815 	stw	r7,32(sp)
        rdctl r5, estatus   /* Read early to avoid usage stall */
 1080044:	000b307a 	rdctl	r5,estatus
        stw   r8,  36(sp)
 1080048:	da000915 	stw	r8,36(sp)
        stw   r9,  40(sp)
 108004c:	da400a15 	stw	r9,40(sp)
        stw   r10, 44(sp)
 1080050:	da800b15 	stw	r10,44(sp)
        stw   r11, 48(sp)
 1080054:	dac00c15 	stw	r11,48(sp)
        stw   r12, 52(sp)
 1080058:	db000d15 	stw	r12,52(sp)
        stw   r13, 56(sp)
 108005c:	db400e15 	stw	r13,56(sp)
        stw   r14, 60(sp)
 1080060:	db800f15 	stw	r14,60(sp)
        stw   r15, 64(sp)
 1080064:	dbc01015 	stw	r15,64(sp)
        /*
         * ea-4 contains the address of the instruction being executed
         * when the exception occured. For interrupt exceptions, we will
         * will be re-issue the isntruction. Store it in 72(sp)
         */
        stw   r5,  68(sp)  /* estatus */
 1080068:	d9401115 	stw	r5,68(sp)
        addi  r15, ea, -4  /* instruction that caused exception */
 108006c:	ebffff04 	addi	r15,ea,-4
        stw   r15,  72(sp)
 1080070:	dbc01215 	stw	r15,72(sp)
#else
        /*
         * Test to see if the exception was a software exception or caused 
         * by an external interrupt, and vector accordingly.
         */
        rdctl r4, ipending
 1080074:	0009313a 	rdctl	r4,ipending
        andi  r2, r5, 1
 1080078:	2880004c 	andi	r2,r5,1
        beq   r2, zero, .Lnot_irq
 108007c:	10000326 	beq	r2,zero,108008c <alt_exception+0x6c>
        beq   r4, zero, .Lnot_irq
 1080080:	20000226 	beq	r4,zero,108008c <alt_exception+0x6c>
        /*
         * Now that all necessary registers have been preserved, call 
         * alt_irq_handler() to process the interrupts.
         */

        call alt_irq_handler
 1080084:	10800fc0 	call	10800fc <alt_irq_handler>

        .section .exceptions.irqreturn, "xa"

        br    .Lexception_exit
 1080088:	00000706 	br	10800a8 <alt_exception+0x88>
         * upon completion, so we write ea (address of instruction *after*
         * the one where the exception occured) into 72(sp). The actual
         * instruction that caused the exception is written in r2, which these
         * handlers will utilize.
         */
        stw ea, 72(sp) /* EA is PC+4 so will skip over instruction causing exception */
 108008c:	df401215 	stw	ea,72(sp)
.Lunknown_16bit:
        addi.n r4, r4, 2 /* Need PC+2 to skip over instruction causing exception */
        stw r4, 72(sp)

#else /* CDX is not Enabled and all instructions are 32bits */
        ldw r2, -4(ea) /* Instruction value that caused exception */
 1080090:	e8bfff17 	ldw	r2,-4(ea)
         * debugger is present) or go into an infinite loop since the
         * handling behavior is undefined; in that case we will not return here.
         */

        /* Load exception-causing address as first argument (r4) */
        addi   r4, ea, -4
 1080094:	e93fff04 	addi	r4,ea,-4

        /* Call the instruction-exception entry */
        call   alt_instruction_exception_entry
 1080098:	10801d40 	call	10801d4 <alt_instruction_exception_entry>
         * instruction
         *
         * Return code was 0: Skip. The instruction after the exception is
         * already stored in 72(sp).
         */
        bne   r2, r0, .Lexception_exit
 108009c:	1000021e 	bne	r2,zero,10800a8 <alt_exception+0x88>

        /*
         * Otherwise, modify 72(sp) to re-issue the instruction that caused the
         * exception.
         */
        addi  r15, ea, -4  /* instruction that caused exception */
 10800a0:	ebffff04 	addi	r15,ea,-4
        stw   r15,  72(sp)
 10800a4:	dbc01215 	stw	r15,72(sp)
        /* 
         * Restore the saved registers, so that all general purpose registers 
         * have been restored to their state at the time the interrupt occured.
         */

        ldw   r5,  68(sp)
 10800a8:	d9401117 	ldw	r5,68(sp)
        ldw   ea,  72(sp)  /* This becomes the PC once eret is executed */
 10800ac:	df401217 	ldw	ea,72(sp)
        ldw   ra,   0(sp)
 10800b0:	dfc00017 	ldw	ra,0(sp)

        wrctl estatus, r5
 10800b4:	2801707a 	wrctl	estatus,r5

        ldw   r1,   8(sp)
 10800b8:	d8400217 	ldw	at,8(sp)
        ldw   r2,  12(sp)
 10800bc:	d8800317 	ldw	r2,12(sp)
        ldw   r3,  16(sp)
 10800c0:	d8c00417 	ldw	r3,16(sp)
        ldw   r4,  20(sp)
 10800c4:	d9000517 	ldw	r4,20(sp)
        ldw   r5,  24(sp)
 10800c8:	d9400617 	ldw	r5,24(sp)
        ldw   r6,  28(sp)
 10800cc:	d9800717 	ldw	r6,28(sp)
        ldw   r7,  32(sp)
 10800d0:	d9c00817 	ldw	r7,32(sp)

#if defined(ALT_EXCEPTION_STACK) && defined(ALT_STACK_CHECK)
        ldw   et, %gprel(alt_exception_old_stack_limit)(gp)
#endif

        ldw   r8,  36(sp)
 10800d4:	da000917 	ldw	r8,36(sp)
        ldw   r9,  40(sp)
 10800d8:	da400a17 	ldw	r9,40(sp)
        ldw   r10, 44(sp)
 10800dc:	da800b17 	ldw	r10,44(sp)
        ldw   r11, 48(sp)
 10800e0:	dac00c17 	ldw	r11,48(sp)
        ldw   r12, 52(sp)
 10800e4:	db000d17 	ldw	r12,52(sp)
        ldw   r13, 56(sp)
 10800e8:	db400e17 	ldw	r13,56(sp)
        ldw   r14, 60(sp)
 10800ec:	db800f17 	ldw	r14,60(sp)
        ldw   r15, 64(sp)
 10800f0:	dbc01017 	ldw	r15,64(sp)
        stw   et, %gprel(alt_stack_limit_value)(gp)
        stw   zero, %gprel(alt_exception_old_stack_limit)(gp)
#endif /* ALT_STACK_CHECK */
        ldw   sp,  76(sp)
#else /* ALT_EXCEPTION_STACK disabled */
        addi  sp, sp, 76
 10800f4:	dec01304 	addi	sp,sp,76

        /*
         * Return to the interrupted instruction.
         */

        eret
 10800f8:	ef80083a 	eret

010800fc <alt_irq_handler>:
 * instruction is present if the macro ALT_CI_INTERRUPT_VECTOR defined.
 */

void alt_irq_handler (void) __attribute__ ((section (".exceptions")));
void alt_irq_handler (void)
{
 10800fc:	defff904 	addi	sp,sp,-28
 1080100:	dfc00615 	stw	ra,24(sp)
 1080104:	df000515 	stw	fp,20(sp)
 1080108:	df000504 	addi	fp,sp,20
  
  /*
   * Notify the operating system that we are at interrupt level.
   */ 
  
  ALT_OS_INT_ENTER();
 108010c:	0001883a 	nop
#ifndef NIOS2_EIC_PRESENT
static ALT_INLINE alt_u32 ALT_ALWAYS_INLINE alt_irq_pending (void)
{
  alt_u32 active;

  NIOS2_READ_IPENDING (active);
 1080110:	0005313a 	rdctl	r2,ipending
 1080114:	e0bffe15 	stw	r2,-8(fp)

  return active;
 1080118:	e0bffe17 	ldw	r2,-8(fp)
   * Consider the case where the high priority interupt is asserted during
   * the interrupt entry sequence for a lower priority interrupt to see why
   * this is the case.
   */

  active = alt_irq_pending ();
 108011c:	e0bffb15 	stw	r2,-20(fp)

  do
  {
    i = 0;
 1080120:	e03ffd15 	stw	zero,-12(fp)
    mask = 1;
 1080124:	00800044 	movi	r2,1
 1080128:	e0bffc15 	stw	r2,-16(fp)
     * called to clear the interrupt condition.
     */

    do
    {
      if (active & mask)
 108012c:	e0fffb17 	ldw	r3,-20(fp)
 1080130:	e0bffc17 	ldw	r2,-16(fp)
 1080134:	1884703a 	and	r2,r3,r2
 1080138:	10001526 	beq	r2,zero,1080190 <alt_irq_handler+0x94>
      { 
#ifdef ALT_ENHANCED_INTERRUPT_API_PRESENT
        alt_irq[i].handler(alt_irq[i].context); 
#else
        alt_irq[i].handler(alt_irq[i].context, i); 
 108013c:	008042b4 	movhi	r2,266
 1080140:	1081ed04 	addi	r2,r2,1972
 1080144:	e0fffd17 	ldw	r3,-12(fp)
 1080148:	180690fa 	slli	r3,r3,3
 108014c:	10c5883a 	add	r2,r2,r3
 1080150:	10c00017 	ldw	r3,0(r2)
 1080154:	008042b4 	movhi	r2,266
 1080158:	1081ed04 	addi	r2,r2,1972
 108015c:	e13ffd17 	ldw	r4,-12(fp)
 1080160:	200890fa 	slli	r4,r4,3
 1080164:	1105883a 	add	r2,r2,r4
 1080168:	10800104 	addi	r2,r2,4
 108016c:	10800017 	ldw	r2,0(r2)
 1080170:	e17ffd17 	ldw	r5,-12(fp)
 1080174:	1009883a 	mov	r4,r2
 1080178:	183ee83a 	callr	r3
#endif
        break;
 108017c:	0001883a 	nop
#ifndef NIOS2_EIC_PRESENT
static ALT_INLINE alt_u32 ALT_ALWAYS_INLINE alt_irq_pending (void)
{
  alt_u32 active;

  NIOS2_READ_IPENDING (active);
 1080180:	0005313a 	rdctl	r2,ipending
 1080184:	e0bfff15 	stw	r2,-4(fp)

  return active;
 1080188:	e0bfff17 	ldw	r2,-4(fp)
 108018c:	00000706 	br	10801ac <alt_irq_handler+0xb0>
      }
      mask <<= 1;
 1080190:	e0bffc17 	ldw	r2,-16(fp)
 1080194:	1085883a 	add	r2,r2,r2
 1080198:	e0bffc15 	stw	r2,-16(fp)
      i++;
 108019c:	e0bffd17 	ldw	r2,-12(fp)
 10801a0:	10800044 	addi	r2,r2,1
 10801a4:	e0bffd15 	stw	r2,-12(fp)

    } while (1);
 10801a8:	003fe006 	br	108012c <__alt_data_end+0xfffb6d4c>

    active = alt_irq_pending ();
 10801ac:	e0bffb15 	stw	r2,-20(fp)
    
  } while (active);
 10801b0:	e0bffb17 	ldw	r2,-20(fp)
 10801b4:	103fda1e 	bne	r2,zero,1080120 <__alt_data_end+0xfffb6d40>

  /*
   * Notify the operating system that interrupt processing is complete.
   */ 

  ALT_OS_INT_EXIT();
 10801b8:	0001883a 	nop
}
 10801bc:	0001883a 	nop
 10801c0:	e037883a 	mov	sp,fp
 10801c4:	dfc00117 	ldw	ra,4(sp)
 10801c8:	df000017 	ldw	fp,0(sp)
 10801cc:	dec00204 	addi	sp,sp,8
 10801d0:	f800283a 	ret

010801d4 <alt_instruction_exception_entry>:
 * that handler if it has been registered. Absent a handler, it will
 * break break or hang as discussed below.
 */
int 
alt_instruction_exception_entry (alt_u32 exception_pc)
{
 10801d4:	defffb04 	addi	sp,sp,-20
 10801d8:	dfc00415 	stw	ra,16(sp)
 10801dc:	df000315 	stw	fp,12(sp)
 10801e0:	df000304 	addi	fp,sp,12
 10801e4:	e13fff15 	stw	r4,-4(fp)
 * NIOS2_EXCEPTION_CAUSE_NOT_PRESENT. Your handling routine should
 * check the validity of the cause argument before proceeding.
 */
#ifdef NIOS2_HAS_EXTRA_EXCEPTION_INFO
  /* Get exception cause & "badaddr" */
  NIOS2_READ_EXCEPTION(cause);
 10801e8:	000531fa 	rdctl	r2,exception
 10801ec:	e0bffd15 	stw	r2,-12(fp)
  cause = ( (cause & NIOS2_EXCEPTION_REG_CAUSE_MASK) >>
 10801f0:	e0bffd17 	ldw	r2,-12(fp)
 10801f4:	10801f0c 	andi	r2,r2,124
 10801f8:	1004d0ba 	srli	r2,r2,2
 10801fc:	e0bffd15 	stw	r2,-12(fp)
              NIOS2_EXCEPTION_REG_CAUSE_OFST );

  NIOS2_READ_BADADDR(badaddr);
 1080200:	0005333a 	rdctl	r2,badaddr
 1080204:	e0bffe15 	stw	r2,-8(fp)
#else
  cause = NIOS2_EXCEPTION_CAUSE_NOT_PRESENT;
  badaddr = 0;
#endif /* NIOS2_HAS_EXTRA_EXCEPTION_INFO */

  if(alt_instruction_exception_handler) {
 1080208:	d0a76217 	ldw	r2,-25208(gp)
 108020c:	10000726 	beq	r2,zero,108022c <alt_instruction_exception_entry+0x58>
     * Call handler. Its return value indicates whether the exception-causing
     * instruction should be re-issued. The code that called us,
     * alt_eceptions_entry.S, will look at this value and adjust the ea
     * register as necessary
     */
    return alt_instruction_exception_handler(cause, exception_pc, badaddr);
 1080210:	d0a76217 	ldw	r2,-25208(gp)
 1080214:	e0fffd17 	ldw	r3,-12(fp)
 1080218:	e1bffe17 	ldw	r6,-8(fp)
 108021c:	e17fff17 	ldw	r5,-4(fp)
 1080220:	1809883a 	mov	r4,r3
 1080224:	103ee83a 	callr	r2
 1080228:	00000206 	br	1080234 <alt_instruction_exception_entry+0x60>
   *    (a peripheral which negates its interrupt output before its
   *    interrupt handler has been executed will cause spurious interrupts)
   */
  else {
#ifdef NIOS2_HAS_DEBUG_STUB
    NIOS2_BREAK();
 108022c:	003da03a 	break	0
      ;
#endif /* NIOS2_HAS_DEBUG_STUB */
  }

  /* We should not get here. Remove compiler warning. */
  return NIOS2_EXCEPTION_RETURN_REISSUE_INST;
 1080230:	0005883a 	mov	r2,zero
}
 1080234:	e037883a 	mov	sp,fp
 1080238:	dfc00117 	ldw	ra,4(sp)
 108023c:	df000017 	ldw	fp,0(sp)
 1080240:	dec00204 	addi	sp,sp,8
 1080244:	f800283a 	ret

Disassembly of section .text:

01080248 <_start>:

    /* Assume the data cache size is always a power of two. */
#if NIOS2_DCACHE_SIZE > 0x8000
    movhi r2, %hi(NIOS2_DCACHE_SIZE)
#else
    movui r2, NIOS2_DCACHE_SIZE
 1080248:	00820014 	movui	r2,2048
#endif

0:
    initd 0(r2)
 108024c:	10000033 	initd	0(r2)
#ifdef NIOS2_ECC_PRESENT
    addi r2, r2, -4
#else
    addi r2, r2, -NIOS2_DCACHE_LINE_SIZE
 1080250:	10bff804 	addi	r2,r2,-32
#endif
    bgt r2, zero, 0b
 1080254:	00bffd16 	blt	zero,r2,108024c <__alt_data_end+0xfffb6e6c>

    /*
     * Now that the caches are initialized, set up the stack pointer and global pointer.
     * The values provided by the linker are assumed to be correctly aligned.
     */
    movhi sp, %hi(__alt_stack_pointer)
 1080258:	06c04334 	movhi	sp,268
    ori sp, sp, %lo(__alt_stack_pointer)
 108025c:	dee4f814 	ori	sp,sp,37856
    movhi gp, %hi(_gp)
 1080260:	068042b4 	movhi	gp,266
    ori gp, gp, %lo(_gp)
 1080264:	d69a5814 	ori	gp,gp,26976
 */
#ifndef ALT_SIM_OPTIMIZE
    /* Log that the BSS is about to be cleared. */
    ALT_LOG_PUTS(alt_log_msg_bss)

    movhi r2, %hi(__bss_start)
 1080268:	008042b4 	movhi	r2,266
    ori r2, r2, %lo(__bss_start)
 108026c:	10818f14 	ori	r2,r2,1596

    movhi r3, %hi(__bss_end)
 1080270:	00c042b4 	movhi	r3,266
    ori r3, r3, %lo(__bss_end)
 1080274:	18c22d14 	ori	r3,r3,2228

    beq r2, r3, 1f
 1080278:	10c00326 	beq	r2,r3,1080288 <_start+0x40>

0:
    stw zero, (r2)
 108027c:	10000015 	stw	zero,0(r2)
    addi r2, r2, 4
 1080280:	10800104 	addi	r2,r2,4
    bltu r2, r3, 0b
 1080284:	10fffd36 	bltu	r2,r3,108027c <__alt_data_end+0xfffb6e9c>
     * section aren't defined until alt_load() has been called).
     */
    mov   et, zero
#endif

    call alt_load
 1080288:	1099dbc0 	call	1099dbc <alt_load>

    /* Log that alt_main is about to be called. */
    ALT_LOG_PUTS(alt_log_msg_alt_main)

    /* Call the C entry point. It should never return. */
    call alt_main
 108028c:	1099f500 	call	1099f50 <alt_main>

01080290 <alt_after_alt_main>:

    /* Wait in infinite loop in case alt_main does return. */
alt_after_alt_main:
    br alt_after_alt_main
 1080290:	003fff06 	br	1080290 <__alt_data_end+0xfffb6eb0>

01080294 <I2C_init>:
 base = the base address of the component
 clk = freuqency of the clock driving this component  ( in Hz)
 speed = SCL speed ie 100K, 400K ...            (in Hz)
 15-OCT-07 initial release
 *****************************************************************/
void I2C_init(alt_u32 base, alt_u32 clk, alt_u32 speed) {
 1080294:	defffa04 	addi	sp,sp,-24
 1080298:	dfc00515 	stw	ra,20(sp)
 108029c:	df000415 	stw	fp,16(sp)
 10802a0:	df000404 	addi	fp,sp,16
 10802a4:	e13ffd15 	stw	r4,-12(fp)
 10802a8:	e17ffe15 	stw	r5,-8(fp)
 10802ac:	e1bfff15 	stw	r6,-4(fp)
	alt_u32 prescale = (clk / (5 * speed)) - 1;
 10802b0:	e0bfff17 	ldw	r2,-4(fp)
 10802b4:	10800164 	muli	r2,r2,5
 10802b8:	100b883a 	mov	r5,r2
 10802bc:	e13ffe17 	ldw	r4,-8(fp)
 10802c0:	10873800 	call	1087380 <__udivsi3>
 10802c4:	10bfffc4 	addi	r2,r2,-1
 10802c8:	e0bffc15 	stw	r2,-16(fp)
#ifdef  I2C_DEBUG
	printf(" Initializing  I2C at 0x%x, \n\twith clock speed 0x%x \n\tand SCL speed 0x%x \n\tand prescale 0x%x\n",base,clk,speed,prescale);
#endif
	IOWR_I2C_OPENCORES_CTR(base, 0x00); /* turn off the core*/
 10802cc:	e0bffd17 	ldw	r2,-12(fp)
 10802d0:	10800204 	addi	r2,r2,8
 10802d4:	0007883a 	mov	r3,zero
 10802d8:	10c00035 	stwio	r3,0(r2)

	IOWR_I2C_OPENCORES_CR(base, I2C_OPENCORES_CR_IACK_MSK); /* clearn any pening IRQ*/
 10802dc:	e0bffd17 	ldw	r2,-12(fp)
 10802e0:	10800404 	addi	r2,r2,16
 10802e4:	1007883a 	mov	r3,r2
 10802e8:	00800044 	movi	r2,1
 10802ec:	18800035 	stwio	r2,0(r3)

	IOWR_I2C_OPENCORES_PRERLO(base, (0xff & prescale)); /* load low presacle bit*/
 10802f0:	e0bffd17 	ldw	r2,-12(fp)
 10802f4:	e0fffc17 	ldw	r3,-16(fp)
 10802f8:	18c03fcc 	andi	r3,r3,255
 10802fc:	10c00035 	stwio	r3,0(r2)

	IOWR_I2C_OPENCORES_PRERHI(base, (0xff & (prescale >> 8))); /* load upper prescale bit */
 1080300:	e0bffd17 	ldw	r2,-12(fp)
 1080304:	10800104 	addi	r2,r2,4
 1080308:	1007883a 	mov	r3,r2
 108030c:	e0bffc17 	ldw	r2,-16(fp)
 1080310:	1004d23a 	srli	r2,r2,8
 1080314:	10803fcc 	andi	r2,r2,255
 1080318:	18800035 	stwio	r2,0(r3)

	IOWR_I2C_OPENCORES_CTR(base, I2C_OPENCORES_CTR_EN_MSK); /* turn on the core*/
 108031c:	e0bffd17 	ldw	r2,-12(fp)
 1080320:	10800204 	addi	r2,r2,8
 1080324:	1007883a 	mov	r3,r2
 1080328:	00802004 	movi	r2,128
 108032c:	18800035 	stwio	r2,0(r3)

}
 1080330:	0001883a 	nop
 1080334:	e037883a 	mov	sp,fp
 1080338:	dfc00117 	ldw	ra,4(sp)
 108033c:	df000017 	ldw	fp,0(sp)
 1080340:	dec00204 	addi	sp,sp,8
 1080344:	f800283a 	ret

01080348 <I2C_start>:
 return value
 0 if address is acknowledged
 1 if address was not acknowledged
 15-OCT-07 initial release
 *****************************************************************/
int I2C_start(alt_u32 base, alt_u32 add, alt_u32 read) {
 1080348:	defffb04 	addi	sp,sp,-20
 108034c:	df000415 	stw	fp,16(sp)
 1080350:	df000404 	addi	fp,sp,16
 1080354:	e13ffd15 	stw	r4,-12(fp)
 1080358:	e17ffe15 	stw	r5,-8(fp)
 108035c:	e1bfff15 	stw	r6,-4(fp)
#ifdef  I2C_DEBUG
	printf(" Start  I2C at 0x%x, \n\twith address 0x%x \n\tand read 0x%x\n",base,add,read);
#endif

	/* transmit the address shifted by one and the read/write bit*/
	IOWR_I2C_OPENCORES_TXR(base, ((add << 1) + (0x1 & read)));
 1080360:	e0bffd17 	ldw	r2,-12(fp)
 1080364:	10800304 	addi	r2,r2,12
 1080368:	1007883a 	mov	r3,r2
 108036c:	e0bffe17 	ldw	r2,-8(fp)
 1080370:	1085883a 	add	r2,r2,r2
 1080374:	1009883a 	mov	r4,r2
 1080378:	e0bfff17 	ldw	r2,-4(fp)
 108037c:	1080004c 	andi	r2,r2,1
 1080380:	2085883a 	add	r2,r4,r2
 1080384:	18800035 	stwio	r2,0(r3)

	/* set start and write  bits which will start the transaction*/
	IOWR_I2C_OPENCORES_CR(base,
 1080388:	e0bffd17 	ldw	r2,-12(fp)
 108038c:	10800404 	addi	r2,r2,16
 1080390:	1007883a 	mov	r3,r2
 1080394:	00802404 	movi	r2,144
 1080398:	18800035 	stwio	r2,0(r3)
			I2C_OPENCORES_CR_STA_MSK | I2C_OPENCORES_CR_WR_MSK);
	int timeout = 1000;
 108039c:	0080fa04 	movi	r2,1000
 10803a0:	e0bffc15 	stw	r2,-16(fp)
	/* wait for the trnasaction to be over.*/
	while ((IORD_I2C_OPENCORES_SR(base) & I2C_OPENCORES_SR_TIP_MSK)
 10803a4:	00000306 	br	10803b4 <I2C_start+0x6c>
			&& timeout > 0)
		timeout--;
 10803a8:	e0bffc17 	ldw	r2,-16(fp)
 10803ac:	10bfffc4 	addi	r2,r2,-1
 10803b0:	e0bffc15 	stw	r2,-16(fp)
	/* set start and write  bits which will start the transaction*/
	IOWR_I2C_OPENCORES_CR(base,
			I2C_OPENCORES_CR_STA_MSK | I2C_OPENCORES_CR_WR_MSK);
	int timeout = 1000;
	/* wait for the trnasaction to be over.*/
	while ((IORD_I2C_OPENCORES_SR(base) & I2C_OPENCORES_SR_TIP_MSK)
 10803b4:	e0bffd17 	ldw	r2,-12(fp)
 10803b8:	10800404 	addi	r2,r2,16
 10803bc:	10800037 	ldwio	r2,0(r2)
 10803c0:	1080008c 	andi	r2,r2,2
 10803c4:	10000226 	beq	r2,zero,10803d0 <I2C_start+0x88>
			&& timeout > 0)
 10803c8:	e0bffc17 	ldw	r2,-16(fp)
 10803cc:	00bff616 	blt	zero,r2,10803a8 <__alt_data_end+0xfffb6fc8>
		timeout--;
	if (timeout <= 0) {
 10803d0:	e0bffc17 	ldw	r2,-16(fp)
 10803d4:	00800216 	blt	zero,r2,10803e0 <I2C_start+0x98>
#ifdef  I2C_DEBUG
		printf("\tTIP timeout\n");
#endif
		return 1;
 10803d8:	00800044 	movi	r2,1
 10803dc:	00000806 	br	1080400 <I2C_start+0xb8>
	}

	/* now check to see if the address was acknowledged */
	if (IORD_I2C_OPENCORES_SR(base) & I2C_OPENCORES_SR_RXNACK_MSK) {
 10803e0:	e0bffd17 	ldw	r2,-12(fp)
 10803e4:	10800404 	addi	r2,r2,16
 10803e8:	10800037 	ldwio	r2,0(r2)
 10803ec:	1080200c 	andi	r2,r2,128
 10803f0:	10000226 	beq	r2,zero,10803fc <I2C_start+0xb4>
#ifdef  I2C_DEBUG
		printf("\tNOACK\n");
#endif
		return (I2C_NOACK);
 10803f4:	00800044 	movi	r2,1
 10803f8:	00000106 	br	1080400 <I2C_start+0xb8>
	} else {
#ifdef  I2C_DEBUG
		printf("\tACK\n");
#endif
		return (I2C_ACK);
 10803fc:	0005883a 	mov	r2,zero
	}
}
 1080400:	e037883a 	mov	sp,fp
 1080404:	df000017 	ldw	fp,0(sp)
 1080408:	dec00104 	addi	sp,sp,4
 108040c:	f800283a 	ret

01080410 <I2C_read>:

 return value
 byte read back.
 15-OCT-07 initial release
 *****************************************************************/
alt_u32 I2C_read(alt_u32 base, alt_u32 last) {
 1080410:	defffc04 	addi	sp,sp,-16
 1080414:	df000315 	stw	fp,12(sp)
 1080418:	df000304 	addi	fp,sp,12
 108041c:	e13ffe15 	stw	r4,-8(fp)
 1080420:	e17fff15 	stw	r5,-4(fp)
#ifdef  I2C_DEBUG
	printf(" Read I2C at 0x%x, \n\twith last0x%x\n",base,last);
#endif
	if (last) {
 1080424:	e0bfff17 	ldw	r2,-4(fp)
 1080428:	10000626 	beq	r2,zero,1080444 <I2C_read+0x34>
		/* start a read and no ack and stop bit*/
		IOWR_I2C_OPENCORES_CR(base,
 108042c:	e0bffe17 	ldw	r2,-8(fp)
 1080430:	10800404 	addi	r2,r2,16
 1080434:	1007883a 	mov	r3,r2
 1080438:	00801a04 	movi	r2,104
 108043c:	18800035 	stwio	r2,0(r3)
 1080440:	00000506 	br	1080458 <I2C_read+0x48>
				I2C_OPENCORES_CR_RD_MSK | I2C_OPENCORES_CR_NACK_MSK | I2C_OPENCORES_CR_STO_MSK);
	} else {
		/* start read*/
		IOWR_I2C_OPENCORES_CR(base, I2C_OPENCORES_CR_RD_MSK);
 1080444:	e0bffe17 	ldw	r2,-8(fp)
 1080448:	10800404 	addi	r2,r2,16
 108044c:	1007883a 	mov	r3,r2
 1080450:	00800804 	movi	r2,32
 1080454:	18800035 	stwio	r2,0(r3)
	}
	int timeout = 1000;
 1080458:	0080fa04 	movi	r2,1000
 108045c:	e0bffd15 	stw	r2,-12(fp)
	/* wait for the trnasaction to be over.*/
	while ((IORD_I2C_OPENCORES_SR(base) & I2C_OPENCORES_SR_TIP_MSK)
 1080460:	00000306 	br	1080470 <I2C_read+0x60>
			&& timeout > 0)
		timeout--;
 1080464:	e0bffd17 	ldw	r2,-12(fp)
 1080468:	10bfffc4 	addi	r2,r2,-1
 108046c:	e0bffd15 	stw	r2,-12(fp)
		/* start read*/
		IOWR_I2C_OPENCORES_CR(base, I2C_OPENCORES_CR_RD_MSK);
	}
	int timeout = 1000;
	/* wait for the trnasaction to be over.*/
	while ((IORD_I2C_OPENCORES_SR(base) & I2C_OPENCORES_SR_TIP_MSK)
 1080470:	e0bffe17 	ldw	r2,-8(fp)
 1080474:	10800404 	addi	r2,r2,16
 1080478:	10800037 	ldwio	r2,0(r2)
 108047c:	1080008c 	andi	r2,r2,2
 1080480:	10000226 	beq	r2,zero,108048c <I2C_read+0x7c>
			&& timeout > 0)
 1080484:	e0bffd17 	ldw	r2,-12(fp)
 1080488:	00bff616 	blt	zero,r2,1080464 <__alt_data_end+0xfffb7084>
		timeout--;

	/* now read the data */
	return (IORD_I2C_OPENCORES_RXR(base));
 108048c:	e0bffe17 	ldw	r2,-8(fp)
 1080490:	10800304 	addi	r2,r2,12
 1080494:	10800037 	ldwio	r2,0(r2)

}
 1080498:	e037883a 	mov	sp,fp
 108049c:	df000017 	ldw	fp,0(sp)
 10804a0:	dec00104 	addi	sp,sp,4
 10804a4:	f800283a 	ret

010804a8 <I2C_write>:
 return value
 0 if address is acknowledged
 1 if address was not acknowledged
 15-OCT-07 initial release
 *****************************************************************/
alt_u32 I2C_write(alt_u32 base, alt_u8 data, alt_u32 last) {
 10804a8:	defffb04 	addi	sp,sp,-20
 10804ac:	df000415 	stw	fp,16(sp)
 10804b0:	df000404 	addi	fp,sp,16
 10804b4:	e13ffd15 	stw	r4,-12(fp)
 10804b8:	2805883a 	mov	r2,r5
 10804bc:	e1bfff15 	stw	r6,-4(fp)
 10804c0:	e0bffe05 	stb	r2,-8(fp)
#ifdef  I2C_DEBUG
	printf(" Write I2C at 0x%x, \n\twith data 0x%x,\n\twith last0x%x\n",base,data,last);
#endif
	/* transmit the data*/
	IOWR_I2C_OPENCORES_TXR(base, data);
 10804c4:	e0bffd17 	ldw	r2,-12(fp)
 10804c8:	10800304 	addi	r2,r2,12
 10804cc:	1007883a 	mov	r3,r2
 10804d0:	e0bffe03 	ldbu	r2,-8(fp)
 10804d4:	18800035 	stwio	r2,0(r3)

	if (last) {
 10804d8:	e0bfff17 	ldw	r2,-4(fp)
 10804dc:	10000626 	beq	r2,zero,10804f8 <I2C_write+0x50>
		/* start a read and no ack and stop bit*/
		IOWR_I2C_OPENCORES_CR(base,
 10804e0:	e0bffd17 	ldw	r2,-12(fp)
 10804e4:	10800404 	addi	r2,r2,16
 10804e8:	1007883a 	mov	r3,r2
 10804ec:	00801404 	movi	r2,80
 10804f0:	18800035 	stwio	r2,0(r3)
 10804f4:	00000506 	br	108050c <I2C_write+0x64>
				I2C_OPENCORES_CR_WR_MSK | I2C_OPENCORES_CR_STO_MSK);
	} else {
		/* start read*/
		IOWR_I2C_OPENCORES_CR(base, I2C_OPENCORES_CR_WR_MSK);
 10804f8:	e0bffd17 	ldw	r2,-12(fp)
 10804fc:	10800404 	addi	r2,r2,16
 1080500:	1007883a 	mov	r3,r2
 1080504:	00800404 	movi	r2,16
 1080508:	18800035 	stwio	r2,0(r3)
	}
	int timeout = 1000;
 108050c:	0080fa04 	movi	r2,1000
 1080510:	e0bffc15 	stw	r2,-16(fp)
	/* wait for the trnasaction to be over.*/
	while ((IORD_I2C_OPENCORES_SR(base) & I2C_OPENCORES_SR_TIP_MSK)
 1080514:	00000306 	br	1080524 <I2C_write+0x7c>
			&& timeout > 0)
		timeout--;
 1080518:	e0bffc17 	ldw	r2,-16(fp)
 108051c:	10bfffc4 	addi	r2,r2,-1
 1080520:	e0bffc15 	stw	r2,-16(fp)
		/* start read*/
		IOWR_I2C_OPENCORES_CR(base, I2C_OPENCORES_CR_WR_MSK);
	}
	int timeout = 1000;
	/* wait for the trnasaction to be over.*/
	while ((IORD_I2C_OPENCORES_SR(base) & I2C_OPENCORES_SR_TIP_MSK)
 1080524:	e0bffd17 	ldw	r2,-12(fp)
 1080528:	10800404 	addi	r2,r2,16
 108052c:	10800037 	ldwio	r2,0(r2)
 1080530:	1080008c 	andi	r2,r2,2
 1080534:	10000226 	beq	r2,zero,1080540 <I2C_write+0x98>
			&& timeout > 0)
 1080538:	e0bffc17 	ldw	r2,-16(fp)
 108053c:	00bff616 	blt	zero,r2,1080518 <__alt_data_end+0xfffb7138>
		timeout--;
	if (timeout <= 0) {
 1080540:	e0bffc17 	ldw	r2,-16(fp)
 1080544:	00800216 	blt	zero,r2,1080550 <I2C_write+0xa8>
#ifdef  I2C_DEBUG
		printf("\tTIP timeout\n");
#endif
		return 1;
 1080548:	00800044 	movi	r2,1
 108054c:	00000806 	br	1080570 <I2C_write+0xc8>
	}

	/* now check to see if the address was acknowledged */
	if (IORD_I2C_OPENCORES_SR(base) & I2C_OPENCORES_SR_RXNACK_MSK) {
 1080550:	e0bffd17 	ldw	r2,-12(fp)
 1080554:	10800404 	addi	r2,r2,16
 1080558:	10800037 	ldwio	r2,0(r2)
 108055c:	1080200c 	andi	r2,r2,128
 1080560:	10000226 	beq	r2,zero,108056c <I2C_write+0xc4>
#ifdef  I2C_DEBUG
		printf("\tNOACK\n");
#endif
		return (I2C_NOACK);
 1080564:	00800044 	movi	r2,1
 1080568:	00000106 	br	1080570 <I2C_write+0xc8>
	} else {
#ifdef  I2C_DEBUG
		printf("\tACK\n");
#endif
		return (I2C_ACK);
 108056c:	0005883a 	mov	r2,zero
	}

}
 1080570:	e037883a 	mov	sp,fp
 1080574:	df000017 	ldw	fp,0(sp)
 1080578:	dec00104 	addi	sp,sp,4
 108057c:	f800283a 	ret

01080580 <_ZN4CCarC1Eiiii>:
/**************************************************************************
Function     : fetch car speed
parameter    :
return value :
**************************************************************************/
CCar::CCar(int MotorL_BaseAddress, int MotorR_BaseAddress,int MeasureL_BaseAddress,int MeasureR_BaseAddress):
 1080580:	deffe204 	addi	sp,sp,-120
 1080584:	dfc01d15 	stw	ra,116(sp)
 1080588:	df001c15 	stw	fp,112(sp)
 108058c:	ddc01b15 	stw	r23,108(sp)
 1080590:	dd801a15 	stw	r22,104(sp)
 1080594:	dd401915 	stw	r21,100(sp)
 1080598:	dd001815 	stw	r20,96(sp)
 108059c:	dcc01715 	stw	r19,92(sp)
 10805a0:	dc801615 	stw	r18,88(sp)
 10805a4:	dc401515 	stw	r17,84(sp)
 10805a8:	dc001415 	stw	r16,80(sp)
 10805ac:	df001c04 	addi	fp,sp,112
 10805b0:	e13fe415 	stw	r4,-112(fp)
 10805b4:	e17fe515 	stw	r5,-108(fp)
 10805b8:	e1bfe615 	stw	r6,-104(fp)
 10805bc:	e1ffe715 	stw	r7,-100(fp)
 10805c0:	00804234 	movhi	r2,264
 10805c4:	10966e04 	addi	r2,r2,22968
 10805c8:	e0bfee15 	stw	r2,-72(fp)
 10805cc:	008042b4 	movhi	r2,266
 10805d0:	10b11104 	addi	r2,r2,-15292
 10805d4:	e0bfef15 	stw	r2,-68(fp)
 10805d8:	e0bff004 	addi	r2,fp,-64
 10805dc:	e0ffe404 	addi	r3,fp,-112
 10805e0:	10c00015 	stw	r3,0(r2)
 10805e4:	00c04234 	movhi	r3,264
 10805e8:	18c19f04 	addi	r3,r3,1660
 10805ec:	10c00115 	stw	r3,4(r2)
 10805f0:	16c00215 	stw	sp,8(r2)
 10805f4:	e0bfe804 	addi	r2,fp,-96
 10805f8:	1009883a 	mov	r4,r2
 10805fc:	108b3440 	call	108b344 <_Unwind_SjLj_Register>
	m_MotorL(MotorL_BaseAddress,MeasureL_BaseAddress),
	m_MotorR(MotorR_BaseAddress,MeasureR_BaseAddress),
	m_bIsStarted(false)
 1080600:	e0ffe417 	ldw	r3,-112(fp)
 1080604:	00bfffc4 	movi	r2,-1
 1080608:	e0bfe915 	stw	r2,-92(fp)
 108060c:	e1bfe717 	ldw	r6,-100(fp)
 1080610:	e17fe517 	ldw	r5,-108(fp)
 1080614:	1809883a 	mov	r4,r3
 1080618:	10820bc0 	call	10820bc <_ZN8CDcMotorC1Eii>
 108061c:	e0bfe417 	ldw	r2,-112(fp)
 1080620:	10c00504 	addi	r3,r2,20
 1080624:	00800044 	movi	r2,1
 1080628:	e0bfe915 	stw	r2,-92(fp)
 108062c:	e1800217 	ldw	r6,8(fp)
 1080630:	e17fe617 	ldw	r5,-104(fp)
 1080634:	1809883a 	mov	r4,r3
 1080638:	10820bc0 	call	10820bc <_ZN8CDcMotorC1Eii>
 108063c:	e0bfe417 	ldw	r2,-112(fp)
 1080640:	10000a05 	stb	zero,40(r2)
	{

	// TODO Auto-generated constructor stub
	Stop();
 1080644:	00800084 	movi	r2,2
 1080648:	e0bfe915 	stw	r2,-92(fp)
 108064c:	e13fe417 	ldw	r4,-112(fp)
 1080650:	10808b80 	call	10808b8 <_ZN4CCar4StopEv>

}
 1080654:	00001b06 	br	10806c4 <_ZN4CCarC1Eiiii+0x144>
 1080658:	e0fff615 	stw	r3,-40(fp)
return value :
**************************************************************************/
CCar::CCar(int MotorL_BaseAddress, int MotorR_BaseAddress,int MeasureL_BaseAddress,int MeasureR_BaseAddress):
	m_MotorL(MotorL_BaseAddress,MeasureL_BaseAddress),
	m_MotorR(MotorR_BaseAddress,MeasureR_BaseAddress),
	m_bIsStarted(false)
 108065c:	e0bfe417 	ldw	r2,-112(fp)
 1080660:	10800504 	addi	r2,r2,20
 1080664:	e03fe915 	stw	zero,-92(fp)
 1080668:	1009883a 	mov	r4,r2
 108066c:	108213c0 	call	108213c <_ZN8CDcMotorD1Ev>
 1080670:	e0bff617 	ldw	r2,-40(fp)
 1080674:	e0bff515 	stw	r2,-44(fp)
 1080678:	00000906 	br	10806a0 <_ZN4CCarC1Eiiii+0x120>
 108067c:	e7001c04 	addi	fp,fp,112
 1080680:	e0ffea17 	ldw	r3,-88(fp)
 1080684:	e0bfe917 	ldw	r2,-92(fp)
 1080688:	10000426 	beq	r2,zero,108069c <_ZN4CCarC1Eiiii+0x11c>
 108068c:	10bfffc4 	addi	r2,r2,-1
 1080690:	103ff126 	beq	r2,zero,1080658 <__alt_data_end+0xfffb7278>
 1080694:	10bfffc4 	addi	r2,r2,-1
 1080698:	003b68fa 	trap	3
 108069c:	e0fff515 	stw	r3,-44(fp)
 10806a0:	e0bfe417 	ldw	r2,-112(fp)
 10806a4:	e03fe915 	stw	zero,-92(fp)
 10806a8:	1009883a 	mov	r4,r2
 10806ac:	108213c0 	call	108213c <_ZN8CDcMotorD1Ev>
 10806b0:	e0fff517 	ldw	r3,-44(fp)
 10806b4:	00bfffc4 	movi	r2,-1
 10806b8:	e0bfe915 	stw	r2,-92(fp)
 10806bc:	1809883a 	mov	r4,r3
 10806c0:	108b5400 	call	108b540 <_Unwind_SjLj_Resume>
 10806c4:	e0bfe804 	addi	r2,fp,-96
 10806c8:	1009883a 	mov	r4,r2
 10806cc:	108b35c0 	call	108b35c <_Unwind_SjLj_Unregister>
	{

	// TODO Auto-generated constructor stub
	Stop();

}
 10806d0:	e6fff804 	addi	sp,fp,-32
 10806d4:	dfc00917 	ldw	ra,36(sp)
 10806d8:	df000817 	ldw	fp,32(sp)
 10806dc:	ddc00717 	ldw	r23,28(sp)
 10806e0:	dd800617 	ldw	r22,24(sp)
 10806e4:	dd400517 	ldw	r21,20(sp)
 10806e8:	dd000417 	ldw	r20,16(sp)
 10806ec:	dcc00317 	ldw	r19,12(sp)
 10806f0:	dc800217 	ldw	r18,8(sp)
 10806f4:	dc400117 	ldw	r17,4(sp)
 10806f8:	dc000017 	ldw	r16,0(sp)
 10806fc:	dec00a04 	addi	sp,sp,40
 1080700:	f800283a 	ret

01080704 <_ZN4CCarD1Ev>:

CCar::~CCar() {
 1080704:	deffe604 	addi	sp,sp,-104
 1080708:	dfc01915 	stw	ra,100(sp)
 108070c:	df001815 	stw	fp,96(sp)
 1080710:	ddc01715 	stw	r23,92(sp)
 1080714:	dd801615 	stw	r22,88(sp)
 1080718:	dd401515 	stw	r21,84(sp)
 108071c:	dd001415 	stw	r20,80(sp)
 1080720:	dcc01315 	stw	r19,76(sp)
 1080724:	dc801215 	stw	r18,72(sp)
 1080728:	dc401115 	stw	r17,68(sp)
 108072c:	dc001015 	stw	r16,64(sp)
 1080730:	df001804 	addi	fp,sp,96
 1080734:	e13fe815 	stw	r4,-96(fp)
 1080738:	00804234 	movhi	r2,264
 108073c:	10966e04 	addi	r2,r2,22968
 1080740:	e0bfef15 	stw	r2,-68(fp)
 1080744:	008042b4 	movhi	r2,266
 1080748:	10b11304 	addi	r2,r2,-15284
 108074c:	e0bff015 	stw	r2,-64(fp)
 1080750:	e0bff104 	addi	r2,fp,-60
 1080754:	e0ffe804 	addi	r3,fp,-96
 1080758:	10c00015 	stw	r3,0(r2)
 108075c:	00c04234 	movhi	r3,264
 1080760:	18c1ee04 	addi	r3,r3,1976
 1080764:	10c00115 	stw	r3,4(r2)
 1080768:	16c00215 	stw	sp,8(r2)
 108076c:	e0bfe904 	addi	r2,fp,-92
 1080770:	1009883a 	mov	r4,r2
 1080774:	108b3440 	call	108b344 <_Unwind_SjLj_Register>
	// TODO Auto-generated destructor stub
	Stop();
 1080778:	00800044 	movi	r2,1
 108077c:	e0bfea15 	stw	r2,-88(fp)
 1080780:	e13fe817 	ldw	r4,-96(fp)
 1080784:	10808b80 	call	10808b8 <_ZN4CCar4StopEv>
	// TODO Auto-generated constructor stub
	Stop();

}

CCar::~CCar() {
 1080788:	e0bfe817 	ldw	r2,-96(fp)
 108078c:	10c00504 	addi	r3,r2,20
 1080790:	00800084 	movi	r2,2
 1080794:	e0bfea15 	stw	r2,-88(fp)
 1080798:	1809883a 	mov	r4,r3
 108079c:	108213c0 	call	108213c <_ZN8CDcMotorD1Ev>
 10807a0:	e0ffe817 	ldw	r3,-96(fp)
 10807a4:	00bfffc4 	movi	r2,-1
 10807a8:	e0bfea15 	stw	r2,-88(fp)
 10807ac:	1809883a 	mov	r4,r3
 10807b0:	108213c0 	call	108213c <_ZN8CDcMotorD1Ev>
	// TODO Auto-generated destructor stub
	Stop();
}
 10807b4:	00001b06 	br	1080824 <_ZN4CCarD1Ev+0x120>
 10807b8:	e7001804 	addi	fp,fp,96
 10807bc:	e0ffeb17 	ldw	r3,-84(fp)
 10807c0:	e0bfea17 	ldw	r2,-88(fp)
 10807c4:	10000426 	beq	r2,zero,10807d8 <_ZN4CCarD1Ev+0xd4>
 10807c8:	10bfffc4 	addi	r2,r2,-1
 10807cc:	10000b26 	beq	r2,zero,10807fc <_ZN4CCarD1Ev+0xf8>
 10807d0:	10bfffc4 	addi	r2,r2,-1
 10807d4:	003b68fa 	trap	3
 10807d8:	e0fff715 	stw	r3,-36(fp)
	// TODO Auto-generated constructor stub
	Stop();

}

CCar::~CCar() {
 10807dc:	e0bfe817 	ldw	r2,-96(fp)
 10807e0:	10800504 	addi	r2,r2,20
 10807e4:	e03fea15 	stw	zero,-88(fp)
 10807e8:	1009883a 	mov	r4,r2
 10807ec:	108213c0 	call	108213c <_ZN8CDcMotorD1Ev>
 10807f0:	e0bff717 	ldw	r2,-36(fp)
 10807f4:	e0bff615 	stw	r2,-40(fp)
 10807f8:	00000106 	br	1080800 <_ZN4CCarD1Ev+0xfc>
 10807fc:	e0fff615 	stw	r3,-40(fp)
 1080800:	e0bfe817 	ldw	r2,-96(fp)
 1080804:	e03fea15 	stw	zero,-88(fp)
 1080808:	1009883a 	mov	r4,r2
 108080c:	108213c0 	call	108213c <_ZN8CDcMotorD1Ev>
 1080810:	e0fff617 	ldw	r3,-40(fp)
 1080814:	00bfffc4 	movi	r2,-1
 1080818:	e0bfea15 	stw	r2,-88(fp)
 108081c:	1809883a 	mov	r4,r3
 1080820:	108b5400 	call	108b540 <_Unwind_SjLj_Resume>
 1080824:	e0bfe904 	addi	r2,fp,-92
 1080828:	1009883a 	mov	r4,r2
 108082c:	108b35c0 	call	108b35c <_Unwind_SjLj_Unregister>
	// TODO Auto-generated destructor stub
	Stop();
}
 1080830:	e6fff804 	addi	sp,fp,-32
 1080834:	dfc00917 	ldw	ra,36(sp)
 1080838:	df000817 	ldw	fp,32(sp)
 108083c:	ddc00717 	ldw	r23,28(sp)
 1080840:	dd800617 	ldw	r22,24(sp)
 1080844:	dd400517 	ldw	r21,20(sp)
 1080848:	dd000417 	ldw	r20,16(sp)
 108084c:	dcc00317 	ldw	r19,12(sp)
 1080850:	dc800217 	ldw	r18,8(sp)
 1080854:	dc400117 	ldw	r17,4(sp)
 1080858:	dc000017 	ldw	r16,0(sp)
 108085c:	dec00a04 	addi	sp,sp,40
 1080860:	f800283a 	ret

01080864 <_ZN4CCar5StartEv>:
Function     : start car
parameter    :
return value :
**************************************************************************/

void CCar::Start(void) {
 1080864:	defffd04 	addi	sp,sp,-12
 1080868:	dfc00215 	stw	ra,8(sp)
 108086c:	df000115 	stw	fp,4(sp)
 1080870:	df000104 	addi	fp,sp,4
 1080874:	e13fff15 	stw	r4,-4(fp)
	// TODO Auto-generated destructor stub
	m_MotorL.Start();
 1080878:	e0bfff17 	ldw	r2,-4(fp)
 108087c:	1009883a 	mov	r4,r2
 1080880:	10824800 	call	1082480 <_ZN8CDcMotor5StartEv>
	m_MotorR.Start();
 1080884:	e0bfff17 	ldw	r2,-4(fp)
 1080888:	10800504 	addi	r2,r2,20
 108088c:	1009883a 	mov	r4,r2
 1080890:	10824800 	call	1082480 <_ZN8CDcMotor5StartEv>
	m_bIsStarted = true;
 1080894:	e0bfff17 	ldw	r2,-4(fp)
 1080898:	00c00044 	movi	r3,1
 108089c:	10c00a05 	stb	r3,40(r2)
}
 10808a0:	0001883a 	nop
 10808a4:	e037883a 	mov	sp,fp
 10808a8:	dfc00117 	ldw	ra,4(sp)
 10808ac:	df000017 	ldw	fp,0(sp)
 10808b0:	dec00204 	addi	sp,sp,8
 10808b4:	f800283a 	ret

010808b8 <_ZN4CCar4StopEv>:
/**************************************************************************
Function     : normal stop car
parameter    :
return value :
**************************************************************************/
void CCar::Stop() {
 10808b8:	defffd04 	addi	sp,sp,-12
 10808bc:	dfc00215 	stw	ra,8(sp)
 10808c0:	df000115 	stw	fp,4(sp)
 10808c4:	df000104 	addi	fp,sp,4
 10808c8:	e13fff15 	stw	r4,-4(fp)
	// TODO Auto-generated destructor stub
	m_MotorL.Stop();
 10808cc:	e0bfff17 	ldw	r2,-4(fp)
 10808d0:	1009883a 	mov	r4,r2
 10808d4:	10823c00 	call	10823c0 <_ZN8CDcMotor4StopEv>
	m_MotorR.Stop();
 10808d8:	e0bfff17 	ldw	r2,-4(fp)
 10808dc:	10800504 	addi	r2,r2,20
 10808e0:	1009883a 	mov	r4,r2
 10808e4:	10823c00 	call	10823c0 <_ZN8CDcMotor4StopEv>
	m_bIsStarted = false;
 10808e8:	e0bfff17 	ldw	r2,-4(fp)
 10808ec:	10000a05 	stb	zero,40(r2)
}
 10808f0:	0001883a 	nop
 10808f4:	e037883a 	mov	sp,fp
 10808f8:	dfc00117 	ldw	ra,4(sp)
 10808fc:	df000017 	ldw	fp,0(sp)
 1080900:	dec00204 	addi	sp,sp,8
 1080904:	f800283a 	ret

01080908 <_ZN4CCar9Stop_fastEv>:
Function     : stop car fastly
parameter    :
return value :
**************************************************************************/

void CCar::Stop_fast() {
 1080908:	defffd04 	addi	sp,sp,-12
 108090c:	dfc00215 	stw	ra,8(sp)
 1080910:	df000115 	stw	fp,4(sp)
 1080914:	df000104 	addi	fp,sp,4
 1080918:	e13fff15 	stw	r4,-4(fp)
	// TODO Auto-generated destructor stub
	m_MotorL.Stop_fast();
 108091c:	e0bfff17 	ldw	r2,-4(fp)
 1080920:	1009883a 	mov	r4,r2
 1080924:	10824340 	call	1082434 <_ZN8CDcMotor9Stop_fastEv>
	m_MotorR.Stop_fast();
 1080928:	e0bfff17 	ldw	r2,-4(fp)
 108092c:	10800504 	addi	r2,r2,20
 1080930:	1009883a 	mov	r4,r2
 1080934:	10824340 	call	1082434 <_ZN8CDcMotor9Stop_fastEv>
	m_bIsStarted = false;
 1080938:	e0bfff17 	ldw	r2,-4(fp)
 108093c:	10000a05 	stb	zero,40(r2)
}
 1080940:	0001883a 	nop
 1080944:	e037883a 	mov	sp,fp
 1080948:	dfc00117 	ldw	ra,4(sp)
 108094c:	df000017 	ldw	fp,0(sp)
 1080950:	dec00204 	addi	sp,sp,8
 1080954:	f800283a 	ret

01080958 <_ZN4CCar5PauseEv>:
Function     :pause fastly
parameter    :
return value :
**************************************************************************/

void CCar::Pause() {
 1080958:	defffd04 	addi	sp,sp,-12
 108095c:	dfc00215 	stw	ra,8(sp)
 1080960:	df000115 	stw	fp,4(sp)
 1080964:	df000104 	addi	fp,sp,4
 1080968:	e13fff15 	stw	r4,-4(fp)
	// TODO Auto-generated destructor stub
	//SetSpeed(0);
	Set_DriveDirection(0x00);
 108096c:	000b883a 	mov	r5,zero
 1080970:	e13fff17 	ldw	r4,-4(fp)
 1080974:	1080abc0 	call	1080abc <_ZN4CCar18Set_DriveDirectionEh>
	Set_TurnDirection(0x00);
 1080978:	000b883a 	mov	r5,zero
 108097c:	e13fff17 	ldw	r4,-4(fp)
 1080980:	1080b080 	call	1080b08 <_ZN4CCar17Set_TurnDirectionEh>
}
 1080984:	0001883a 	nop
 1080988:	e037883a 	mov	sp,fp
 108098c:	dfc00117 	ldw	ra,4(sp)
 1080990:	df000017 	ldw	fp,0(sp)
 1080994:	dec00204 	addi	sp,sp,8
 1080998:	f800283a 	ret

0108099c <_ZN4CCar8SetSpeedEff>:
Function     :set car speed of both
parameter    :
return value :
**************************************************************************/

void CCar::SetSpeed(float SpeedL, float SpeedR){
 108099c:	defffb04 	addi	sp,sp,-20
 10809a0:	dfc00415 	stw	ra,16(sp)
 10809a4:	df000315 	stw	fp,12(sp)
 10809a8:	df000304 	addi	fp,sp,12
 10809ac:	e13ffd15 	stw	r4,-12(fp)
 10809b0:	e17ffe15 	stw	r5,-8(fp)
 10809b4:	e1bfff15 	stw	r6,-4(fp)

	m_MotorL.SetSpeed(SpeedL);
 10809b8:	e0bffd17 	ldw	r2,-12(fp)
 10809bc:	e17ffe17 	ldw	r5,-8(fp)
 10809c0:	1009883a 	mov	r4,r2
 10809c4:	108223c0 	call	108223c <_ZN8CDcMotor8SetSpeedEf>
	m_MotorR.SetSpeed(SpeedR);
 10809c8:	e0bffd17 	ldw	r2,-12(fp)
 10809cc:	10800504 	addi	r2,r2,20
 10809d0:	e17fff17 	ldw	r5,-4(fp)
 10809d4:	1009883a 	mov	r4,r2
 10809d8:	108223c0 	call	108223c <_ZN8CDcMotor8SetSpeedEf>

}
 10809dc:	0001883a 	nop
 10809e0:	e037883a 	mov	sp,fp
 10809e4:	dfc00117 	ldw	ra,4(sp)
 10809e8:	df000017 	ldw	fp,0(sp)
 10809ec:	dec00204 	addi	sp,sp,8
 10809f0:	f800283a 	ret

010809f4 <_ZN4CCar8SetSpeedEf>:
Function     :set car speed of single
parameter    :
return value :
**************************************************************************/

void CCar::SetSpeed(float Speed){
 10809f4:	defffc04 	addi	sp,sp,-16
 10809f8:	dfc00315 	stw	ra,12(sp)
 10809fc:	df000215 	stw	fp,8(sp)
 1080a00:	df000204 	addi	fp,sp,8
 1080a04:	e13ffe15 	stw	r4,-8(fp)
 1080a08:	e17fff15 	stw	r5,-4(fp)
	SetSpeed(Speed, Speed);
 1080a0c:	e1bfff17 	ldw	r6,-4(fp)
 1080a10:	e17fff17 	ldw	r5,-4(fp)
 1080a14:	e13ffe17 	ldw	r4,-8(fp)
 1080a18:	108099c0 	call	108099c <_ZN4CCar8SetSpeedEff>

}
 1080a1c:	0001883a 	nop
 1080a20:	e037883a 	mov	sp,fp
 1080a24:	dfc00117 	ldw	ra,4(sp)
 1080a28:	df000017 	ldw	fp,0(sp)
 1080a2c:	dec00204 	addi	sp,sp,8
 1080a30:	f800283a 	ret

01080a34 <_ZN4CCar9IsStartedEv>:
Function     :return the car status of start
parameter    :
return value :
**************************************************************************/

bool CCar::IsStarted(void){
 1080a34:	defffe04 	addi	sp,sp,-8
 1080a38:	df000115 	stw	fp,4(sp)
 1080a3c:	df000104 	addi	fp,sp,4
 1080a40:	e13fff15 	stw	r4,-4(fp)
	return m_bIsStarted;
 1080a44:	e0bfff17 	ldw	r2,-4(fp)
 1080a48:	10800a03 	ldbu	r2,40(r2)
}
 1080a4c:	e037883a 	mov	sp,fp
 1080a50:	df000017 	ldw	fp,0(sp)
 1080a54:	dec00104 	addi	sp,sp,4
 1080a58:	f800283a 	ret

01080a5c <_ZN4CCar12meaure_speedEv>:
parameter    :
return value :
**************************************************************************/

void CCar::meaure_speed(void)
{
 1080a5c:	defffd04 	addi	sp,sp,-12
 1080a60:	dfc00215 	stw	ra,8(sp)
 1080a64:	df000115 	stw	fp,4(sp)
 1080a68:	df000104 	addi	fp,sp,4
 1080a6c:	e13fff15 	stw	r4,-4(fp)
	Measure_L=m_MotorL.GetCount();
 1080a70:	e0bfff17 	ldw	r2,-4(fp)
 1080a74:	1009883a 	mov	r4,r2
 1080a78:	10824f40 	call	10824f4 <_ZN8CDcMotor8GetCountEv>
 1080a7c:	1007883a 	mov	r3,r2
 1080a80:	e0bfff17 	ldw	r2,-4(fp)
 1080a84:	10c00a8d 	sth	r3,42(r2)
	Measure_R=m_MotorR.GetCount();
 1080a88:	e0bfff17 	ldw	r2,-4(fp)
 1080a8c:	10800504 	addi	r2,r2,20
 1080a90:	1009883a 	mov	r4,r2
 1080a94:	10824f40 	call	10824f4 <_ZN8CDcMotor8GetCountEv>
 1080a98:	1007883a 	mov	r3,r2
 1080a9c:	e0bfff17 	ldw	r2,-4(fp)
 1080aa0:	10c00b0d 	sth	r3,44(r2)
}
 1080aa4:	0001883a 	nop
 1080aa8:	e037883a 	mov	sp,fp
 1080aac:	dfc00117 	ldw	ra,4(sp)
 1080ab0:	df000017 	ldw	fp,0(sp)
 1080ab4:	dec00204 	addi	sp,sp,8
 1080ab8:	f800283a 	ret

01080abc <_ZN4CCar18Set_DriveDirectionEh>:
Function     :set the car direction
parameter    :
return value :
**************************************************************************/
void CCar::Set_DriveDirection(unsigned char m_direction)
{
 1080abc:	defffc04 	addi	sp,sp,-16
 1080ac0:	dfc00315 	stw	ra,12(sp)
 1080ac4:	df000215 	stw	fp,8(sp)
 1080ac8:	df000204 	addi	fp,sp,8
 1080acc:	e13ffe15 	stw	r4,-8(fp)
 1080ad0:	2805883a 	mov	r2,r5
 1080ad4:	e0bfff05 	stb	r2,-4(fp)
	driver_direction=m_direction;
 1080ad8:	e0bffe17 	ldw	r2,-8(fp)
 1080adc:	e0ffff03 	ldbu	r3,-4(fp)
 1080ae0:	10c00b85 	stb	r3,46(r2)
	Set_TurnDirection(0x00);
 1080ae4:	000b883a 	mov	r5,zero
 1080ae8:	e13ffe17 	ldw	r4,-8(fp)
 1080aec:	1080b080 	call	1080b08 <_ZN4CCar17Set_TurnDirectionEh>
}
 1080af0:	0001883a 	nop
 1080af4:	e037883a 	mov	sp,fp
 1080af8:	dfc00117 	ldw	ra,4(sp)
 1080afc:	df000017 	ldw	fp,0(sp)
 1080b00:	dec00204 	addi	sp,sp,8
 1080b04:	f800283a 	ret

01080b08 <_ZN4CCar17Set_TurnDirectionEh>:
Function     :set the car turn direction
parameter    :
return value :
**************************************************************************/
void CCar::Set_TurnDirection(unsigned char m_direction)
{
 1080b08:	defffd04 	addi	sp,sp,-12
 1080b0c:	df000215 	stw	fp,8(sp)
 1080b10:	df000204 	addi	fp,sp,8
 1080b14:	e13ffe15 	stw	r4,-8(fp)
 1080b18:	2805883a 	mov	r2,r5
 1080b1c:	e0bfff05 	stb	r2,-4(fp)
	turn_direction=m_direction;
 1080b20:	e0bffe17 	ldw	r2,-8(fp)
 1080b24:	e0ffff03 	ldbu	r3,-4(fp)
 1080b28:	10c00bc5 	stb	r3,47(r2)
}
 1080b2c:	0001883a 	nop
 1080b30:	e037883a 	mov	sp,fp
 1080b34:	df000017 	ldw	fp,0(sp)
 1080b38:	dec00104 	addi	sp,sp,4
 1080b3c:	f800283a 	ret

01080b40 <_ZN4CCar15Set_TurnFORWARDEv>:
Function     :set the car turn FORWARD
parameter    :
return value :
**************************************************************************/
void CCar::Set_TurnFORWARD()
{
 1080b40:	defffd04 	addi	sp,sp,-12
 1080b44:	dfc00215 	stw	ra,8(sp)
 1080b48:	df000115 	stw	fp,4(sp)
 1080b4c:	df000104 	addi	fp,sp,4
 1080b50:	e13fff15 	stw	r4,-4(fp)
	Set_DriveDirection(CAR_DIRECTION_FORWARD);
 1080b54:	01400044 	movi	r5,1
 1080b58:	e13fff17 	ldw	r4,-4(fp)
 1080b5c:	1080abc0 	call	1080abc <_ZN4CCar18Set_DriveDirectionEh>
	Set_TurnDirection(0x00);
 1080b60:	000b883a 	mov	r5,zero
 1080b64:	e13fff17 	ldw	r4,-4(fp)
 1080b68:	1080b080 	call	1080b08 <_ZN4CCar17Set_TurnDirectionEh>
}
 1080b6c:	0001883a 	nop
 1080b70:	e037883a 	mov	sp,fp
 1080b74:	dfc00117 	ldw	ra,4(sp)
 1080b78:	df000017 	ldw	fp,0(sp)
 1080b7c:	dec00204 	addi	sp,sp,8
 1080b80:	f800283a 	ret

01080b84 <_ZN4CCar16Set_TurnBACKWARDEv>:
Function     :set the car turn BACKWARD
parameter    :
return value :
**************************************************************************/
void CCar::Set_TurnBACKWARD()
{
 1080b84:	defffd04 	addi	sp,sp,-12
 1080b88:	dfc00215 	stw	ra,8(sp)
 1080b8c:	df000115 	stw	fp,4(sp)
 1080b90:	df000104 	addi	fp,sp,4
 1080b94:	e13fff15 	stw	r4,-4(fp)
	Set_DriveDirection(CAR_DIRECTION_BACKWARD);
 1080b98:	01400084 	movi	r5,2
 1080b9c:	e13fff17 	ldw	r4,-4(fp)
 1080ba0:	1080abc0 	call	1080abc <_ZN4CCar18Set_DriveDirectionEh>
	Set_TurnDirection(0x00);
 1080ba4:	000b883a 	mov	r5,zero
 1080ba8:	e13fff17 	ldw	r4,-4(fp)
 1080bac:	1080b080 	call	1080b08 <_ZN4CCar17Set_TurnDirectionEh>
}
 1080bb0:	0001883a 	nop
 1080bb4:	e037883a 	mov	sp,fp
 1080bb8:	dfc00117 	ldw	ra,4(sp)
 1080bbc:	df000017 	ldw	fp,0(sp)
 1080bc0:	dec00204 	addi	sp,sp,8
 1080bc4:	f800283a 	ret

01080bc8 <_ZN4CCar12Set_TurnLEFTEv>:
Function     :set the car turn LEFT
parameter    :
return value :
**************************************************************************/
void CCar::Set_TurnLEFT()
{
 1080bc8:	defffd04 	addi	sp,sp,-12
 1080bcc:	dfc00215 	stw	ra,8(sp)
 1080bd0:	df000115 	stw	fp,4(sp)
 1080bd4:	df000104 	addi	fp,sp,4
 1080bd8:	e13fff15 	stw	r4,-4(fp)
	Set_TurnDirection(CAR_TURN_LEFT);
 1080bdc:	01400044 	movi	r5,1
 1080be0:	e13fff17 	ldw	r4,-4(fp)
 1080be4:	1080b080 	call	1080b08 <_ZN4CCar17Set_TurnDirectionEh>
}
 1080be8:	0001883a 	nop
 1080bec:	e037883a 	mov	sp,fp
 1080bf0:	dfc00117 	ldw	ra,4(sp)
 1080bf4:	df000017 	ldw	fp,0(sp)
 1080bf8:	dec00204 	addi	sp,sp,8
 1080bfc:	f800283a 	ret

01080c00 <_ZN4CCar13Set_TurnRIGHTEv>:
Function     :set the car turn RIGHT
parameter    :
return value :
**************************************************************************/
void CCar::Set_TurnRIGHT()
{
 1080c00:	defffd04 	addi	sp,sp,-12
 1080c04:	dfc00215 	stw	ra,8(sp)
 1080c08:	df000115 	stw	fp,4(sp)
 1080c0c:	df000104 	addi	fp,sp,4
 1080c10:	e13fff15 	stw	r4,-4(fp)
	Set_TurnDirection(CAR_TURN_RIGHT);
 1080c14:	01400084 	movi	r5,2
 1080c18:	e13fff17 	ldw	r4,-4(fp)
 1080c1c:	1080b080 	call	1080b08 <_ZN4CCar17Set_TurnDirectionEh>
}
 1080c20:	0001883a 	nop
 1080c24:	e037883a 	mov	sp,fp
 1080c28:	dfc00117 	ldw	ra,4(sp)
 1080c2c:	df000017 	ldw	fp,0(sp)
 1080c30:	dec00204 	addi	sp,sp,8
 1080c34:	f800283a 	ret

01080c38 <_Z6ir_isrPvm>:
 */

#include "IrRx.h"
#include "terasic_includes.h"
#include "sys/alt_irq.h"  // interrupt
void ir_isr(void* context, alt_u32 id){
 1080c38:	defffa04 	addi	sp,sp,-24
 1080c3c:	dfc00515 	stw	ra,20(sp)
 1080c40:	df000415 	stw	fp,16(sp)
 1080c44:	df000404 	addi	fp,sp,16
 1080c48:	e13ffe15 	stw	r4,-8(fp)
 1080c4c:	e17fff15 	stw	r5,-4(fp)
	CIrRx *pIrRx = (CIrRx *)context;
 1080c50:	e0bffe17 	ldw	r2,-8(fp)
 1080c54:	e0bffc15 	stw	r2,-16(fp)
    alt_u32 ScanCode;
    IOWR(pIrRx->m_IRM_BASE, 0, 0);
 1080c58:	e0bffc17 	ldw	r2,-16(fp)
 1080c5c:	10800717 	ldw	r2,28(r2)
 1080c60:	0007883a 	mov	r3,zero
 1080c64:	10c00035 	stwio	r3,0(r2)
   // IOWR(LED_BASE, 0x00, 0xAA);
    //IOWR_ALTERA_AVALON_PIO_IRQ_MASK(MPU_INT_BASE,0x00);
    if (pIrRx){
 1080c68:	e0bffc17 	ldw	r2,-16(fp)
 1080c6c:	10001026 	beq	r2,zero,1080cb0 <_Z6ir_isrPvm+0x78>
    	ScanCode = IORD(pIrRx->m_IRM_BASE, 0);
 1080c70:	e0bffc17 	ldw	r2,-16(fp)
 1080c74:	10800717 	ldw	r2,28(r2)
 1080c78:	10800037 	ldwio	r2,0(r2)
 1080c7c:	e0bffd15 	stw	r2,-12(fp)

    	if (!pIrRx->IsFull()){
 1080c80:	e0bffc17 	ldw	r2,-16(fp)
 1080c84:	1009883a 	mov	r4,r2
 1080c88:	10826900 	call	1082690 <_ZN6CQueue6IsFullEv>
 1080c8c:	1080005c 	xori	r2,r2,1
 1080c90:	10803fcc 	andi	r2,r2,255
 1080c94:	10000426 	beq	r2,zero,1080ca8 <_Z6ir_isrPvm+0x70>
    		pIrRx->Push(ScanCode);
 1080c98:	e0bffc17 	ldw	r2,-16(fp)
 1080c9c:	e17ffd17 	ldw	r5,-12(fp)
 1080ca0:	1009883a 	mov	r4,r2
 1080ca4:	10826f40 	call	10826f4 <_ZN6CQueue4PushEm>
    	}
    	pIrRx->ClearInterrupt();
 1080ca8:	e13ffc17 	ldw	r4,-16(fp)
 1080cac:	1080fc40 	call	1080fc4 <_ZN5CIrRx14ClearInterruptEv>
    }

    // clear irq
    //IOWR(pIrRx->m_IRM_BASE, 0, 0);
    IOWR_ALTERA_AVALON_PIO_EDGE_CAP(pIrRx->m_IRM_BASE,0);
 1080cb0:	e0bffc17 	ldw	r2,-16(fp)
 1080cb4:	10800717 	ldw	r2,28(r2)
 1080cb8:	10800304 	addi	r2,r2,12
 1080cbc:	0007883a 	mov	r3,zero
 1080cc0:	10c00035 	stwio	r3,0(r2)


}
 1080cc4:	0001883a 	nop
 1080cc8:	e037883a 	mov	sp,fp
 1080ccc:	dfc00117 	ldw	ra,4(sp)
 1080cd0:	df000017 	ldw	fp,0(sp)
 1080cd4:	dec00204 	addi	sp,sp,8
 1080cd8:	f800283a 	ret

01080cdc <_ZN5CIrRxC1Emmm>:


CIrRx::CIrRx(const alt_u32 IRM_BASE, const alt_u32 IRM_IRQ, const alt_u32 IRM_IRQ_INTERRUPT_CONTROLLER_ID):
 1080cdc:	defffa04 	addi	sp,sp,-24
 1080ce0:	dfc00515 	stw	ra,20(sp)
 1080ce4:	df000415 	stw	fp,16(sp)
 1080ce8:	df000404 	addi	fp,sp,16
 1080cec:	e13ffc15 	stw	r4,-16(fp)
 1080cf0:	e17ffd15 	stw	r5,-12(fp)
 1080cf4:	e1bffe15 	stw	r6,-8(fp)
 1080cf8:	e1ffff15 	stw	r7,-4(fp)
CQueue(8),
m_IRM_BASE(IRM_BASE),
m_IRM_IRQ(IRM_IRQ),
m_IRM_IRQ_INTERRUPT_CONTROLLER_ID(IRM_IRQ_INTERRUPT_CONTROLLER_ID)
 1080cfc:	e0bffc17 	ldw	r2,-16(fp)
 1080d00:	01400204 	movi	r5,8
 1080d04:	1009883a 	mov	r4,r2
 1080d08:	108254c0 	call	108254c <_ZN6CQueueC1Ei>
 1080d0c:	008042b4 	movhi	r2,266
 1080d10:	10b13404 	addi	r2,r2,-15152
 1080d14:	e0fffc17 	ldw	r3,-16(fp)
 1080d18:	18800015 	stw	r2,0(r3)
 1080d1c:	e0bffc17 	ldw	r2,-16(fp)
 1080d20:	e0fffe17 	ldw	r3,-8(fp)
 1080d24:	10c00515 	stw	r3,20(r2)
 1080d28:	e0bffc17 	ldw	r2,-16(fp)
 1080d2c:	e0ffff17 	ldw	r3,-4(fp)
 1080d30:	10c00615 	stw	r3,24(r2)
 1080d34:	e0bffc17 	ldw	r2,-16(fp)
 1080d38:	e0fffd17 	ldw	r3,-12(fp)
 1080d3c:	10c00715 	stw	r3,28(r2)
{
	// TODO Auto-generated constructor stub

}
 1080d40:	0001883a 	nop
 1080d44:	e037883a 	mov	sp,fp
 1080d48:	dfc00117 	ldw	ra,4(sp)
 1080d4c:	df000017 	ldw	fp,0(sp)
 1080d50:	dec00204 	addi	sp,sp,8
 1080d54:	f800283a 	ret

01080d58 <_ZN5CIrRxD1Ev>:

CIrRx::~CIrRx() {
 1080d58:	defffd04 	addi	sp,sp,-12
 1080d5c:	dfc00215 	stw	ra,8(sp)
 1080d60:	df000115 	stw	fp,4(sp)
 1080d64:	df000104 	addi	fp,sp,4
 1080d68:	e13fff15 	stw	r4,-4(fp)
 1080d6c:	008042b4 	movhi	r2,266
 1080d70:	10b13404 	addi	r2,r2,-15152
 1080d74:	e0ffff17 	ldw	r3,-4(fp)
 1080d78:	18800015 	stw	r2,0(r3)
 1080d7c:	e0bfff17 	ldw	r2,-4(fp)
 1080d80:	1009883a 	mov	r4,r2
 1080d84:	10825c00 	call	10825c0 <_ZN6CQueueD1Ev>
	// TODO Auto-generated destructor stub
}
 1080d88:	0005883a 	mov	r2,zero
 1080d8c:	10000226 	beq	r2,zero,1080d98 <_ZN5CIrRxD1Ev+0x40>
 1080d90:	e13fff17 	ldw	r4,-4(fp)
 1080d94:	10863780 	call	1086378 <_ZdlPv>
 1080d98:	e037883a 	mov	sp,fp
 1080d9c:	dfc00117 	ldw	ra,4(sp)
 1080da0:	df000017 	ldw	fp,0(sp)
 1080da4:	dec00204 	addi	sp,sp,8
 1080da8:	f800283a 	ret

01080dac <_ZN5CIrRxD0Ev>:
{
	// TODO Auto-generated constructor stub

}

CIrRx::~CIrRx() {
 1080dac:	defffd04 	addi	sp,sp,-12
 1080db0:	dfc00215 	stw	ra,8(sp)
 1080db4:	df000115 	stw	fp,4(sp)
 1080db8:	df000104 	addi	fp,sp,4
 1080dbc:	e13fff15 	stw	r4,-4(fp)
	// TODO Auto-generated destructor stub
}
 1080dc0:	e13fff17 	ldw	r4,-4(fp)
 1080dc4:	1080d580 	call	1080d58 <_ZN5CIrRxD1Ev>
 1080dc8:	e13fff17 	ldw	r4,-4(fp)
 1080dcc:	10863780 	call	1086378 <_ZdlPv>
 1080dd0:	e037883a 	mov	sp,fp
 1080dd4:	dfc00117 	ldw	ra,4(sp)
 1080dd8:	df000017 	ldw	fp,0(sp)
 1080ddc:	dec00204 	addi	sp,sp,8
 1080de0:	f800283a 	ret

01080de4 <_ZN5CIrRx6EnableEv>:


bool CIrRx::Enable(void){
 1080de4:	defffb04 	addi	sp,sp,-20
 1080de8:	dfc00415 	stw	ra,16(sp)
 1080dec:	df000315 	stw	fp,12(sp)
 1080df0:	df000304 	addi	fp,sp,12
 1080df4:	e13fff15 	stw	r4,-4(fp)
	bool bSuccess = false;
 1080df8:	e03ffd05 	stb	zero,-12(fp)
	int error;

	CQueue::Clear();
 1080dfc:	e0bfff17 	ldw	r2,-4(fp)
 1080e00:	1009883a 	mov	r4,r2
 1080e04:	10828200 	call	1082820 <_ZN6CQueue5ClearEv>
	// enable interrupt
    IOWR_ALTERA_AVALON_PIO_IRQ_MASK(m_IRM_BASE,0x01);
 1080e08:	e0bfff17 	ldw	r2,-4(fp)
 1080e0c:	10800717 	ldw	r2,28(r2)
 1080e10:	10800204 	addi	r2,r2,8
 1080e14:	1007883a 	mov	r3,r2
 1080e18:	00800044 	movi	r2,1
 1080e1c:	18800035 	stwio	r2,0(r3)
	// clear capture flag
	IOWR_ALTERA_AVALON_PIO_EDGE_CAP(m_IRM_BASE,0);
 1080e20:	e0bfff17 	ldw	r2,-4(fp)
 1080e24:	10800717 	ldw	r2,28(r2)
 1080e28:	10800304 	addi	r2,r2,12
 1080e2c:	0007883a 	mov	r3,zero
 1080e30:	10c00035 	stwio	r3,0(r2)
        //
	error = alt_irq_register(m_IRM_IRQ,this,ir_isr);
 1080e34:	e0bfff17 	ldw	r2,-4(fp)
 1080e38:	10800517 	ldw	r2,20(r2)
 1080e3c:	01804234 	movhi	r6,264
 1080e40:	31830e04 	addi	r6,r6,3128
 1080e44:	e17fff17 	ldw	r5,-4(fp)
 1080e48:	1009883a 	mov	r4,r2
 1080e4c:	10999880 	call	1099988 <alt_irq_register>
 1080e50:	e0bffe15 	stw	r2,-8(fp)

	bSuccess = error?false:true;
 1080e54:	e0bffe17 	ldw	r2,-8(fp)
 1080e58:	1005003a 	cmpeq	r2,r2,zero
 1080e5c:	e0bffd05 	stb	r2,-12(fp)

	return bSuccess;
 1080e60:	e0bffd03 	ldbu	r2,-12(fp)
}
 1080e64:	e037883a 	mov	sp,fp
 1080e68:	dfc00117 	ldw	ra,4(sp)
 1080e6c:	df000017 	ldw	fp,0(sp)
 1080e70:	dec00204 	addi	sp,sp,8
 1080e74:	f800283a 	ret

01080e78 <_ZN5CIrRx7DisableEv>:


void CIrRx::Disable(void){
 1080e78:	defff904 	addi	sp,sp,-28
 1080e7c:	dfc00615 	stw	ra,24(sp)
 1080e80:	df000515 	stw	fp,20(sp)
 1080e84:	df000504 	addi	fp,sp,20
 1080e88:	e13fff15 	stw	r4,-4(fp)
   	alt_irq_disable(m_IRM_IRQ_INTERRUPT_CONTROLLER_ID);
 1080e8c:	e0bfff17 	ldw	r2,-4(fp)
 1080e90:	10800617 	ldw	r2,24(r2)
 1080e94:	e0bffb15 	stw	r2,-20(fp)
static ALT_INLINE alt_irq_context ALT_ALWAYS_INLINE 
       alt_irq_disable_all (void)
{
  alt_irq_context context;

  NIOS2_READ_STATUS (context);
 1080e98:	0005303a 	rdctl	r2,status
 1080e9c:	e0bffc15 	stw	r2,-16(fp)

  NIOS2_WRITE_STATUS (context & ~NIOS2_STATUS_PIE_MSK);
 1080ea0:	e0fffc17 	ldw	r3,-16(fp)
 1080ea4:	00bfff84 	movi	r2,-2
 1080ea8:	1884703a 	and	r2,r3,r2
 1080eac:	1001703a 	wrctl	status,r2
  
  return context;
 1080eb0:	e0bffc17 	ldw	r2,-16(fp)
static ALT_INLINE int ALT_ALWAYS_INLINE alt_irq_disable (alt_u32 id)
{
  alt_irq_context  status;
  extern volatile alt_u32 alt_irq_active;

  status = alt_irq_disable_all ();
 1080eb4:	e0bffd15 	stw	r2,-12(fp)

  alt_irq_active &= ~(1 << id);
 1080eb8:	00c00044 	movi	r3,1
 1080ebc:	e0bffb17 	ldw	r2,-20(fp)
 1080ec0:	1884983a 	sll	r2,r3,r2
 1080ec4:	0084303a 	nor	r2,zero,r2
 1080ec8:	1007883a 	mov	r3,r2
 1080ecc:	d0a75c17 	ldw	r2,-25232(gp)
 1080ed0:	1884703a 	and	r2,r3,r2
 1080ed4:	d0a75c15 	stw	r2,-25232(gp)
  NIOS2_WRITE_IENABLE (alt_irq_active);
 1080ed8:	d0a75c17 	ldw	r2,-25232(gp)
 1080edc:	100170fa 	wrctl	ienable,r2
 1080ee0:	e0bffd17 	ldw	r2,-12(fp)
 1080ee4:	e0bffe15 	stw	r2,-8(fp)
  status &= ~NIOS2_STATUS_PIE_MSK;
  status |= (context & NIOS2_STATUS_PIE_MSK);
  
  NIOS2_WRITE_STATUS (status);
#else
  NIOS2_WRITE_STATUS (context);
 1080ee8:	e0bffe17 	ldw	r2,-8(fp)
 1080eec:	1001703a 	wrctl	status,r2
   	CQueue::Clear();
 1080ef0:	e0bfff17 	ldw	r2,-4(fp)
 1080ef4:	1009883a 	mov	r4,r2
 1080ef8:	10828200 	call	1082820 <_ZN6CQueue5ClearEv>
}
 1080efc:	0001883a 	nop
 1080f00:	e037883a 	mov	sp,fp
 1080f04:	dfc00117 	ldw	ra,4(sp)
 1080f08:	df000017 	ldw	fp,0(sp)
 1080f0c:	dec00204 	addi	sp,sp,8
 1080f10:	f800283a 	ret

01080f14 <_ZN5CIrRx4TestEv>:

void CIrRx::Test(void){
 1080f14:	defffb04 	addi	sp,sp,-20
 1080f18:	dfc00415 	stw	ra,16(sp)
 1080f1c:	df000315 	stw	fp,12(sp)
 1080f20:	dc000215 	stw	r16,8(sp)
 1080f24:	df000304 	addi	fp,sp,12
 1080f28:	e13ffe15 	stw	r4,-8(fp)
	int nIndex = 1;
 1080f2c:	00800044 	movi	r2,1
 1080f30:	e0bffd15 	stw	r2,-12(fp)
	if (!Enable()){
 1080f34:	e13ffe17 	ldw	r4,-8(fp)
 1080f38:	1080de40 	call	1080de4 <_ZN5CIrRx6EnableEv>
 1080f3c:	1080005c 	xori	r2,r2,1
 1080f40:	10803fcc 	andi	r2,r2,255
 1080f44:	10000426 	beq	r2,zero,1080f58 <_ZN5CIrRx4TestEv+0x44>
		printf("failed to enable IR\r\n");
 1080f48:	010042b4 	movhi	r4,266
 1080f4c:	21312604 	addi	r4,r4,-15208
 1080f50:	108c1780 	call	108c178 <puts>
				printf("[%d]%04xh\r\n", nIndex++, Pop());
			}
		}
	}

}
 1080f54:	00001506 	br	1080fac <_ZN5CIrRx4TestEv+0x98>
void CIrRx::Test(void){
	int nIndex = 1;
	if (!Enable()){
		printf("failed to enable IR\r\n");
	}else{
		printf("Enable ir\r\n");
 1080f58:	010042b4 	movhi	r4,266
 1080f5c:	21312c04 	addi	r4,r4,-15184
 1080f60:	108c1780 	call	108c178 <puts>
		while(1){
			if (!IsEmpty()){
 1080f64:	e0bffe17 	ldw	r2,-8(fp)
 1080f68:	1009883a 	mov	r4,r2
 1080f6c:	10826500 	call	1082650 <_ZN6CQueue7IsEmptyEv>
 1080f70:	1080005c 	xori	r2,r2,1
 1080f74:	10803fcc 	andi	r2,r2,255
 1080f78:	103ffa26 	beq	r2,zero,1080f64 <__alt_data_end+0xfffb7b84>
				printf("[%d]%04xh\r\n", nIndex++, Pop());
 1080f7c:	e43ffd17 	ldw	r16,-12(fp)
 1080f80:	80800044 	addi	r2,r16,1
 1080f84:	e0bffd15 	stw	r2,-12(fp)
 1080f88:	e0bffe17 	ldw	r2,-8(fp)
 1080f8c:	1009883a 	mov	r4,r2
 1080f90:	108278c0 	call	108278c <_ZN6CQueue3PopEv>
 1080f94:	100d883a 	mov	r6,r2
 1080f98:	800b883a 	mov	r5,r16
 1080f9c:	010042b4 	movhi	r4,266
 1080fa0:	21312f04 	addi	r4,r4,-15172
 1080fa4:	108c07c0 	call	108c07c <printf>
	int nIndex = 1;
	if (!Enable()){
		printf("failed to enable IR\r\n");
	}else{
		printf("Enable ir\r\n");
		while(1){
 1080fa8:	003fee06 	br	1080f64 <__alt_data_end+0xfffb7b84>
				printf("[%d]%04xh\r\n", nIndex++, Pop());
			}
		}
	}

}
 1080fac:	e6ffff04 	addi	sp,fp,-4
 1080fb0:	dfc00217 	ldw	ra,8(sp)
 1080fb4:	df000117 	ldw	fp,4(sp)
 1080fb8:	dc000017 	ldw	r16,0(sp)
 1080fbc:	dec00304 	addi	sp,sp,12
 1080fc0:	f800283a 	ret

01080fc4 <_ZN5CIrRx14ClearInterruptEv>:

void CIrRx::ClearInterrupt(void){
 1080fc4:	defffe04 	addi	sp,sp,-8
 1080fc8:	df000115 	stw	fp,4(sp)
 1080fcc:	df000104 	addi	fp,sp,4
 1080fd0:	e13fff15 	stw	r4,-4(fp)
	IOWR(m_IRM_BASE, 0, 0); // write any value to clear interrupt
 1080fd4:	e0bfff17 	ldw	r2,-4(fp)
 1080fd8:	10800717 	ldw	r2,28(r2)
 1080fdc:	0007883a 	mov	r3,zero
 1080fe0:	10c00035 	stwio	r3,0(r2)
	//IOWR_ALTERA_AVALON_PIO_IRQ_MASK(MPU_INT_BASE,0x00);
}
 1080fe4:	0001883a 	nop
 1080fe8:	e037883a 	mov	sp,fp
 1080fec:	df000017 	ldw	fp,0(sp)
 1080ff0:	dec00104 	addi	sp,sp,4
 1080ff4:	f800283a 	ret

01080ff8 <_ZN3MPUC1Emh>:
*/

#include "MPU.h"
#include "i2c_opencores.h"

MPU::MPU(alt_u32 ControllerAddr, alt_u8 DeviceAddr)
 1080ff8:	defff904 	addi	sp,sp,-28
 1080ffc:	dfc00615 	stw	ra,24(sp)
 1081000:	df000515 	stw	fp,20(sp)
 1081004:	df000504 	addi	fp,sp,20
 1081008:	e13ffd15 	stw	r4,-12(fp)
 108100c:	e17ffe15 	stw	r5,-8(fp)
 1081010:	3005883a 	mov	r2,r6
 1081014:	e0bfff05 	stb	r2,-4(fp)
 1081018:	008042b4 	movhi	r2,266
 108101c:	10b15704 	addi	r2,r2,-15012
 1081020:	e0fffd17 	ldw	r3,-12(fp)
 1081024:	18800015 	stw	r2,0(r3)
{
	m_ControllerAddr = ControllerAddr;
 1081028:	e0bffd17 	ldw	r2,-12(fp)
 108102c:	e0fffe17 	ldw	r3,-8(fp)
 1081030:	10c00515 	stw	r3,20(r2)
	devAddr = DeviceAddr;
 1081034:	e0bffd17 	ldw	r2,-12(fp)
 1081038:	e0ffff03 	ldbu	r3,-4(fp)
 108103c:	10c00485 	stb	r3,18(r2)

    const int ref_clk = 50 * 1000 * 1000; // 50Mhz
 1081040:	0080bef4 	movhi	r2,763
 1081044:	10bc2004 	addi	r2,r2,-3968
 1081048:	e0bffb15 	stw	r2,-20(fp)
    const int i2c_clk = 400 * 1000; // 400KHz
 108104c:	008001b4 	movhi	r2,6
 1081050:	1086a004 	addi	r2,r2,6784
 1081054:	e0bffc15 	stw	r2,-16(fp)
    I2C_init(m_ControllerAddr, ref_clk, i2c_clk);
 1081058:	e0bffd17 	ldw	r2,-12(fp)
 108105c:	10800517 	ldw	r2,20(r2)
 1081060:	018001b4 	movhi	r6,6
 1081064:	3186a004 	addi	r6,r6,6784
 1081068:	0140bef4 	movhi	r5,763
 108106c:	297c2004 	addi	r5,r5,-3968
 1081070:	1009883a 	mov	r4,r2
 1081074:	10802940 	call	1080294 <I2C_init>
}
 1081078:	0001883a 	nop
 108107c:	e037883a 	mov	sp,fp
 1081080:	dfc00117 	ldw	ra,4(sp)
 1081084:	df000017 	ldw	fp,0(sp)
 1081088:	dec00204 	addi	sp,sp,8
 108108c:	f800283a 	ret

01081090 <_ZN3MPUD1Ev>:

MPU::~MPU() {
 1081090:	defffd04 	addi	sp,sp,-12
 1081094:	dfc00215 	stw	ra,8(sp)
 1081098:	df000115 	stw	fp,4(sp)
 108109c:	df000104 	addi	fp,sp,4
 10810a0:	e13fff15 	stw	r4,-4(fp)
 10810a4:	008042b4 	movhi	r2,266
 10810a8:	10b15704 	addi	r2,r2,-15012
 10810ac:	e0ffff17 	ldw	r3,-4(fp)
 10810b0:	18800015 	stw	r2,0(r3)
	// TODO Auto-generated destructor stub
}
 10810b4:	0005883a 	mov	r2,zero
 10810b8:	10000226 	beq	r2,zero,10810c4 <_ZN3MPUD1Ev+0x34>
 10810bc:	e13fff17 	ldw	r4,-4(fp)
 10810c0:	10863780 	call	1086378 <_ZdlPv>
 10810c4:	e037883a 	mov	sp,fp
 10810c8:	dfc00117 	ldw	ra,4(sp)
 10810cc:	df000017 	ldw	fp,0(sp)
 10810d0:	dec00204 	addi	sp,sp,8
 10810d4:	f800283a 	ret

010810d8 <_ZN3MPUD0Ev>:
    const int ref_clk = 50 * 1000 * 1000; // 50Mhz
    const int i2c_clk = 400 * 1000; // 400KHz
    I2C_init(m_ControllerAddr, ref_clk, i2c_clk);
}

MPU::~MPU() {
 10810d8:	defffd04 	addi	sp,sp,-12
 10810dc:	dfc00215 	stw	ra,8(sp)
 10810e0:	df000115 	stw	fp,4(sp)
 10810e4:	df000104 	addi	fp,sp,4
 10810e8:	e13fff15 	stw	r4,-4(fp)
	// TODO Auto-generated destructor stub
}
 10810ec:	e13fff17 	ldw	r4,-4(fp)
 10810f0:	10810900 	call	1081090 <_ZN3MPUD1Ev>
 10810f4:	e13fff17 	ldw	r4,-4(fp)
 10810f8:	10863780 	call	1086378 <_ZdlPv>
 10810fc:	e037883a 	mov	sp,fp
 1081100:	dfc00117 	ldw	ra,4(sp)
 1081104:	df000017 	ldw	fp,0(sp)
 1081108:	dec00204 	addi	sp,sp,8
 108110c:	f800283a 	ret

01081110 <_ZN3MPU8WriteRegEmhh>:

bool MPU::WriteReg(uint32_t devAddr, alt_u8 RegIndex, alt_u8 RegValue){
 1081110:	defff904 	addi	sp,sp,-28
 1081114:	dfc00615 	stw	ra,24(sp)
 1081118:	df000515 	stw	fp,20(sp)
 108111c:	df000504 	addi	fp,sp,20
 1081120:	e13ffc15 	stw	r4,-16(fp)
 1081124:	e17ffd15 	stw	r5,-12(fp)
 1081128:	3007883a 	mov	r3,r6
 108112c:	3805883a 	mov	r2,r7
 1081130:	e0fffe05 	stb	r3,-8(fp)
 1081134:	e0bfff05 	stb	r2,-4(fp)
    int ack = 0;
 1081138:	e03ffb15 	stw	zero,-20(fp)
    ack |= I2C_start(m_ControllerAddr, devAddr, 0);
 108113c:	e0bffc17 	ldw	r2,-16(fp)
 1081140:	10800517 	ldw	r2,20(r2)
 1081144:	000d883a 	mov	r6,zero
 1081148:	e17ffd17 	ldw	r5,-12(fp)
 108114c:	1009883a 	mov	r4,r2
 1081150:	10803480 	call	1080348 <I2C_start>
 1081154:	1007883a 	mov	r3,r2
 1081158:	e0bffb17 	ldw	r2,-20(fp)
 108115c:	10c4b03a 	or	r2,r2,r3
 1081160:	e0bffb15 	stw	r2,-20(fp)
    ack |= I2C_write(m_ControllerAddr, RegIndex, 0);
 1081164:	e0bffc17 	ldw	r2,-16(fp)
 1081168:	10800517 	ldw	r2,20(r2)
 108116c:	e0fffe03 	ldbu	r3,-8(fp)
 1081170:	000d883a 	mov	r6,zero
 1081174:	180b883a 	mov	r5,r3
 1081178:	1009883a 	mov	r4,r2
 108117c:	10804a80 	call	10804a8 <I2C_write>
 1081180:	1007883a 	mov	r3,r2
 1081184:	e0bffb17 	ldw	r2,-20(fp)
 1081188:	10c4b03a 	or	r2,r2,r3
 108118c:	e0bffb15 	stw	r2,-20(fp)
    ack |= I2C_write(m_ControllerAddr, RegValue, 1);
 1081190:	e0bffc17 	ldw	r2,-16(fp)
 1081194:	10800517 	ldw	r2,20(r2)
 1081198:	e0ffff03 	ldbu	r3,-4(fp)
 108119c:	01800044 	movi	r6,1
 10811a0:	180b883a 	mov	r5,r3
 10811a4:	1009883a 	mov	r4,r2
 10811a8:	10804a80 	call	10804a8 <I2C_write>
 10811ac:	1007883a 	mov	r3,r2
 10811b0:	e0bffb17 	ldw	r2,-20(fp)
 10811b4:	10c4b03a 	or	r2,r2,r3
 10811b8:	e0bffb15 	stw	r2,-20(fp)
    if (ack != 0) {
 10811bc:	e0bffb17 	ldw	r2,-20(fp)
 10811c0:	10000826 	beq	r2,zero,10811e4 <_ZN3MPU8WriteRegEmhh+0xd4>
    	printf("\t[MPU6500] DeviceAddress: %lx, RegIndex: %hhx, RegValue: %hhx\n", devAddr, RegIndex, RegValue);
 10811c4:	e0bffe03 	ldbu	r2,-8(fp)
 10811c8:	e0ffff03 	ldbu	r3,-4(fp)
 10811cc:	180f883a 	mov	r7,r3
 10811d0:	100d883a 	mov	r6,r2
 10811d4:	e17ffd17 	ldw	r5,-12(fp)
 10811d8:	010042b4 	movhi	r4,266
 10811dc:	21313904 	addi	r4,r4,-15132
 10811e0:	108c07c0 	call	108c07c <printf>
    }
    return ((ack == I2C_ACK)? true: false);
 10811e4:	e0bffb17 	ldw	r2,-20(fp)
 10811e8:	1005003a 	cmpeq	r2,r2,zero
}
 10811ec:	e037883a 	mov	sp,fp
 10811f0:	dfc00117 	ldw	ra,4(sp)
 10811f4:	df000017 	ldw	fp,0(sp)
 10811f8:	dec00204 	addi	sp,sp,8
 10811fc:	f800283a 	ret

01081200 <_ZN3MPU9readBytesEmhtPh>:

bool MPU::readBytes(uint32_t devAddr, alt_u8 RegIndex, alt_u16 Len, alt_u8 *pRegValue){
 1081200:	defff704 	addi	sp,sp,-36
 1081204:	dfc00815 	stw	ra,32(sp)
 1081208:	df000715 	stw	fp,28(sp)
 108120c:	dc000615 	stw	r16,24(sp)
 1081210:	df000704 	addi	fp,sp,28
 1081214:	e13ffb15 	stw	r4,-20(fp)
 1081218:	e17ffc15 	stw	r5,-16(fp)
 108121c:	3007883a 	mov	r3,r6
 1081220:	3805883a 	mov	r2,r7
 1081224:	e0fffd05 	stb	r3,-12(fp)
 1081228:	e0bffe0d 	sth	r2,-8(fp)
    int ack = 0;
 108122c:	e03ffa15 	stw	zero,-24(fp)
    ack |= I2C_start(m_ControllerAddr, devAddr, 0);
 1081230:	e0bffb17 	ldw	r2,-20(fp)
 1081234:	10800517 	ldw	r2,20(r2)
 1081238:	000d883a 	mov	r6,zero
 108123c:	e17ffc17 	ldw	r5,-16(fp)
 1081240:	1009883a 	mov	r4,r2
 1081244:	10803480 	call	1080348 <I2C_start>
 1081248:	1007883a 	mov	r3,r2
 108124c:	e0bffa17 	ldw	r2,-24(fp)
 1081250:	10c4b03a 	or	r2,r2,r3
 1081254:	e0bffa15 	stw	r2,-24(fp)
    ack |= I2C_write(m_ControllerAddr, RegIndex, 0);
 1081258:	e0bffb17 	ldw	r2,-20(fp)
 108125c:	10800517 	ldw	r2,20(r2)
 1081260:	e0fffd03 	ldbu	r3,-12(fp)
 1081264:	000d883a 	mov	r6,zero
 1081268:	180b883a 	mov	r5,r3
 108126c:	1009883a 	mov	r4,r2
 1081270:	10804a80 	call	10804a8 <I2C_write>
 1081274:	1007883a 	mov	r3,r2
 1081278:	e0bffa17 	ldw	r2,-24(fp)
 108127c:	10c4b03a 	or	r2,r2,r3
 1081280:	e0bffa15 	stw	r2,-24(fp)
    ack |= I2C_start(m_ControllerAddr, devAddr, 1);
 1081284:	e0bffb17 	ldw	r2,-20(fp)
 1081288:	10800517 	ldw	r2,20(r2)
 108128c:	01800044 	movi	r6,1
 1081290:	e17ffc17 	ldw	r5,-16(fp)
 1081294:	1009883a 	mov	r4,r2
 1081298:	10803480 	call	1080348 <I2C_start>
 108129c:	1007883a 	mov	r3,r2
 10812a0:	e0bffa17 	ldw	r2,-24(fp)
 10812a4:	10c4b03a 	or	r2,r2,r3
 10812a8:	e0bffa15 	stw	r2,-24(fp)
    alt_u16 i;
    for (i = 0; i < Len; ++i) {
 10812ac:	e03ff90d 	sth	zero,-28(fp)
 10812b0:	e0fff90b 	ldhu	r3,-28(fp)
 10812b4:	e0bffe0b 	ldhu	r2,-8(fp)
 10812b8:	18801b2e 	bgeu	r3,r2,1081328 <_ZN3MPU9readBytesEmhtPh+0x128>
        if (i != Len - 1) {
 10812bc:	e0fff90b 	ldhu	r3,-28(fp)
 10812c0:	e0bffe0b 	ldhu	r2,-8(fp)
 10812c4:	10bfffc4 	addi	r2,r2,-1
 10812c8:	18800a26 	beq	r3,r2,10812f4 <_ZN3MPU9readBytesEmhtPh+0xf4>
            pRegValue[i] = I2C_read(m_ControllerAddr, 0);
 10812cc:	e0bff90b 	ldhu	r2,-28(fp)
 10812d0:	e0c00217 	ldw	r3,8(fp)
 10812d4:	18a1883a 	add	r16,r3,r2
 10812d8:	e0bffb17 	ldw	r2,-20(fp)
 10812dc:	10800517 	ldw	r2,20(r2)
 10812e0:	000b883a 	mov	r5,zero
 10812e4:	1009883a 	mov	r4,r2
 10812e8:	10804100 	call	1080410 <I2C_read>
 10812ec:	80800005 	stb	r2,0(r16)
 10812f0:	00000906 	br	1081318 <_ZN3MPU9readBytesEmhtPh+0x118>
        } else {
            pRegValue[i] = I2C_read(m_ControllerAddr, 1);
 10812f4:	e0bff90b 	ldhu	r2,-28(fp)
 10812f8:	e0c00217 	ldw	r3,8(fp)
 10812fc:	18a1883a 	add	r16,r3,r2
 1081300:	e0bffb17 	ldw	r2,-20(fp)
 1081304:	10800517 	ldw	r2,20(r2)
 1081308:	01400044 	movi	r5,1
 108130c:	1009883a 	mov	r4,r2
 1081310:	10804100 	call	1080410 <I2C_read>
 1081314:	80800005 	stb	r2,0(r16)
    int ack = 0;
    ack |= I2C_start(m_ControllerAddr, devAddr, 0);
    ack |= I2C_write(m_ControllerAddr, RegIndex, 0);
    ack |= I2C_start(m_ControllerAddr, devAddr, 1);
    alt_u16 i;
    for (i = 0; i < Len; ++i) {
 1081318:	e0bff90b 	ldhu	r2,-28(fp)
 108131c:	10800044 	addi	r2,r2,1
 1081320:	e0bff90d 	sth	r2,-28(fp)
 1081324:	003fe206 	br	10812b0 <__alt_data_end+0xfffb7ed0>
            pRegValue[i] = I2C_read(m_ControllerAddr, 0);
        } else {
            pRegValue[i] = I2C_read(m_ControllerAddr, 1);
        }
    }
    if (ack != 0) {
 1081328:	e0bffa17 	ldw	r2,-24(fp)
 108132c:	10000626 	beq	r2,zero,1081348 <_ZN3MPU9readBytesEmhtPh+0x148>
    	printf("\t[MPU6500] DeviceAddress: %lx, RegIndex: %hhx\n", devAddr, RegIndex);
 1081330:	e0bffd03 	ldbu	r2,-12(fp)
 1081334:	100d883a 	mov	r6,r2
 1081338:	e17ffc17 	ldw	r5,-16(fp)
 108133c:	010042b4 	movhi	r4,266
 1081340:	21314904 	addi	r4,r4,-15068
 1081344:	108c07c0 	call	108c07c <printf>
    }
    return ((ack == I2C_ACK)? true: false);
 1081348:	e0bffa17 	ldw	r2,-24(fp)
 108134c:	1005003a 	cmpeq	r2,r2,zero
}
 1081350:	e6ffff04 	addi	sp,fp,-4
 1081354:	dfc00217 	ldw	ra,8(sp)
 1081358:	df000117 	ldw	fp,4(sp)
 108135c:	dc000017 	ldw	r16,0(sp)
 1081360:	dec00304 	addi	sp,sp,12
 1081364:	f800283a 	ret

01081368 <_ZN3MPU9writeBitsEmhhb>:

bool MPU::writeBits(uint32_t devAddr, alt_u8 RegIndex, alt_u8 BitIndex, bool bSet){
 1081368:	defff704 	addi	sp,sp,-36
 108136c:	dfc00815 	stw	ra,32(sp)
 1081370:	df000715 	stw	fp,28(sp)
 1081374:	df000704 	addi	fp,sp,28
 1081378:	e13ffb15 	stw	r4,-20(fp)
 108137c:	e17ffc15 	stw	r5,-16(fp)
 1081380:	3009883a 	mov	r4,r6
 1081384:	3807883a 	mov	r3,r7
 1081388:	e0800217 	ldw	r2,8(fp)
 108138c:	e13ffd05 	stb	r4,-12(fp)
 1081390:	e0fffe05 	stb	r3,-8(fp)
 1081394:	e0bfff05 	stb	r2,-4(fp)
	return writeBits(devAddr, RegIndex, BitIndex, 1, bSet?0x01:0x00);
 1081398:	e0fffd03 	ldbu	r3,-12(fp)
 108139c:	e13ffe03 	ldbu	r4,-8(fp)
 10813a0:	e0bfff03 	ldbu	r2,-4(fp)
 10813a4:	10000226 	beq	r2,zero,10813b0 <_ZN3MPU9writeBitsEmhhb+0x48>
 10813a8:	00800044 	movi	r2,1
 10813ac:	00000106 	br	10813b4 <_ZN3MPU9writeBitsEmhhb+0x4c>
 10813b0:	0005883a 	mov	r2,zero
 10813b4:	d8800115 	stw	r2,4(sp)
 10813b8:	00800044 	movi	r2,1
 10813bc:	d8800015 	stw	r2,0(sp)
 10813c0:	200f883a 	mov	r7,r4
 10813c4:	180d883a 	mov	r6,r3
 10813c8:	e17ffc17 	ldw	r5,-16(fp)
 10813cc:	e13ffb17 	ldw	r4,-20(fp)
 10813d0:	10813e80 	call	10813e8 <_ZN3MPU9writeBitsEmhhhh>
}
 10813d4:	e037883a 	mov	sp,fp
 10813d8:	dfc00117 	ldw	ra,4(sp)
 10813dc:	df000017 	ldw	fp,0(sp)
 10813e0:	dec00204 	addi	sp,sp,8
 10813e4:	f800283a 	ret

010813e8 <_ZN3MPU9writeBitsEmhhhh>:

bool MPU::writeBits(uint32_t devAddr, alt_u8 RegIndex, alt_u8 BitEndIndex, alt_u8 BitNum, alt_u8 Value){
 10813e8:	defff404 	addi	sp,sp,-48
 10813ec:	dfc00b15 	stw	ra,44(sp)
 10813f0:	df000a15 	stw	fp,40(sp)
 10813f4:	df000a04 	addi	fp,sp,40
 10813f8:	e13ffa15 	stw	r4,-24(fp)
 10813fc:	e17ffb15 	stw	r5,-20(fp)
 1081400:	300b883a 	mov	r5,r6
 1081404:	3809883a 	mov	r4,r7
 1081408:	e0c00217 	ldw	r3,8(fp)
 108140c:	e0800317 	ldw	r2,12(fp)
 1081410:	e17ffc05 	stb	r5,-16(fp)
 1081414:	e13ffd05 	stb	r4,-12(fp)
 1081418:	e0fffe05 	stb	r3,-8(fp)
 108141c:	e0bfff05 	stb	r2,-4(fp)
	bool bSuccess;
	alt_u8 Data8, Mask, BitMask;
	int i;

	bSuccess = readBytes(devAddr, RegIndex, 1, &Data8);
 1081420:	e0fffc03 	ldbu	r3,-16(fp)
 1081424:	e0bff904 	addi	r2,fp,-28
 1081428:	d8800015 	stw	r2,0(sp)
 108142c:	01c00044 	movi	r7,1
 1081430:	180d883a 	mov	r6,r3
 1081434:	e17ffb17 	ldw	r5,-20(fp)
 1081438:	e13ffa17 	ldw	r4,-24(fp)
 108143c:	10812000 	call	1081200 <_ZN3MPU9readBytesEmhtPh>
 1081440:	e0bff705 	stb	r2,-36(fp)
	if (bSuccess){
 1081444:	e0bff703 	ldbu	r2,-36(fp)
 1081448:	10003026 	beq	r2,zero,108150c <_ZN3MPU9writeBitsEmhhhh+0x124>
		// create mask
		Mask = 0x00;
 108144c:	e03ff745 	stb	zero,-35(fp)
		BitMask = 0x01 << BitEndIndex;
 1081450:	e0bffd03 	ldbu	r2,-12(fp)
 1081454:	00c00044 	movi	r3,1
 1081458:	1884983a 	sll	r2,r3,r2
 108145c:	e0bff785 	stb	r2,-34(fp)
		for(i=0;i<BitNum;i++){
 1081460:	e03ff815 	stw	zero,-32(fp)
 1081464:	e0bffe03 	ldbu	r2,-8(fp)
 1081468:	e0fff817 	ldw	r3,-32(fp)
 108146c:	18800b0e 	bge	r3,r2,108149c <_ZN3MPU9writeBitsEmhhhh+0xb4>
			Mask |= BitMask;
 1081470:	e0fff743 	ldbu	r3,-35(fp)
 1081474:	e0bff783 	ldbu	r2,-34(fp)
 1081478:	1884b03a 	or	r2,r3,r2
 108147c:	e0bff745 	stb	r2,-35(fp)
			BitMask >>= 1;
 1081480:	e0bff783 	ldbu	r2,-34(fp)
 1081484:	1005d07a 	srai	r2,r2,1
 1081488:	e0bff785 	stb	r2,-34(fp)
	bSuccess = readBytes(devAddr, RegIndex, 1, &Data8);
	if (bSuccess){
		// create mask
		Mask = 0x00;
		BitMask = 0x01 << BitEndIndex;
		for(i=0;i<BitNum;i++){
 108148c:	e0bff817 	ldw	r2,-32(fp)
 1081490:	10800044 	addi	r2,r2,1
 1081494:	e0bff815 	stw	r2,-32(fp)
 1081498:	003ff206 	br	1081464 <__alt_data_end+0xfffb8084>
			Mask |= BitMask;
			BitMask >>= 1;
		}
		Data8 &= ~Mask;
 108149c:	e0bff743 	ldbu	r2,-35(fp)
 10814a0:	0084303a 	nor	r2,zero,r2
 10814a4:	1007883a 	mov	r3,r2
 10814a8:	e0bff903 	ldbu	r2,-28(fp)
 10814ac:	1884703a 	and	r2,r3,r2
 10814b0:	e0bff905 	stb	r2,-28(fp)
		Data8 |= (Value << (BitEndIndex-BitNum+1)) & Mask;
 10814b4:	e0ffff03 	ldbu	r3,-4(fp)
 10814b8:	e13ffd03 	ldbu	r4,-12(fp)
 10814bc:	e0bffe03 	ldbu	r2,-8(fp)
 10814c0:	2085c83a 	sub	r2,r4,r2
 10814c4:	10800044 	addi	r2,r2,1
 10814c8:	1884983a 	sll	r2,r3,r2
 10814cc:	1007883a 	mov	r3,r2
 10814d0:	e0bff743 	ldbu	r2,-35(fp)
 10814d4:	1884703a 	and	r2,r3,r2
 10814d8:	1007883a 	mov	r3,r2
 10814dc:	e0bff903 	ldbu	r2,-28(fp)
 10814e0:	1884b03a 	or	r2,r3,r2
 10814e4:	e0bff905 	stb	r2,-28(fp)
		bSuccess = WriteReg(devAddr, RegIndex, Data8);
 10814e8:	e0bffc03 	ldbu	r2,-16(fp)
 10814ec:	e0fff903 	ldbu	r3,-28(fp)
 10814f0:	18c03fcc 	andi	r3,r3,255
 10814f4:	180f883a 	mov	r7,r3
 10814f8:	100d883a 	mov	r6,r2
 10814fc:	e17ffb17 	ldw	r5,-20(fp)
 1081500:	e13ffa17 	ldw	r4,-24(fp)
 1081504:	10811100 	call	1081110 <_ZN3MPU8WriteRegEmhh>
 1081508:	e0bff705 	stb	r2,-36(fp)
	}
	return bSuccess;
 108150c:	e0bff703 	ldbu	r2,-36(fp)
}
 1081510:	e037883a 	mov	sp,fp
 1081514:	dfc00117 	ldw	ra,4(sp)
 1081518:	df000017 	ldw	fp,0(sp)
 108151c:	dec00204 	addi	sp,sp,8
 1081520:	f800283a 	ret

01081524 <_ZN3MPU8readBitsEmhhhPh>:

bool MPU::readBits(uint32_t devAddr, alt_u8 RegIndex, alt_u8 BitEndIndex, alt_u8 BitNum, alt_u8 *Buffer){
 1081524:	defff504 	addi	sp,sp,-44
 1081528:	dfc00a15 	stw	ra,40(sp)
 108152c:	df000915 	stw	fp,36(sp)
 1081530:	df000904 	addi	fp,sp,36
 1081534:	e13ffb15 	stw	r4,-20(fp)
 1081538:	e17ffc15 	stw	r5,-16(fp)
 108153c:	3009883a 	mov	r4,r6
 1081540:	3807883a 	mov	r3,r7
 1081544:	e0800217 	ldw	r2,8(fp)
 1081548:	e13ffd05 	stb	r4,-12(fp)
 108154c:	e0fffe05 	stb	r3,-8(fp)
 1081550:	e0bfff05 	stb	r2,-4(fp)
	bool bSuccess;
	alt_u8 Mask, BitMask;
	int i;

	bSuccess = readBytes(devAddr, RegIndex, 1, Buffer);
 1081554:	e0fffd03 	ldbu	r3,-12(fp)
 1081558:	e0800317 	ldw	r2,12(fp)
 108155c:	d8800015 	stw	r2,0(sp)
 1081560:	01c00044 	movi	r7,1
 1081564:	180d883a 	mov	r6,r3
 1081568:	e17ffc17 	ldw	r5,-16(fp)
 108156c:	e13ffb17 	ldw	r4,-20(fp)
 1081570:	10812000 	call	1081200 <_ZN3MPU9readBytesEmhtPh>
 1081574:	e0bffa05 	stb	r2,-24(fp)
	if (bSuccess){
 1081578:	e0bffa03 	ldbu	r2,-24(fp)
 108157c:	10002626 	beq	r2,zero,1081618 <_ZN3MPU8readBitsEmhhhPh+0xf4>
		// create mask
		Mask = 0x00;
 1081580:	e03ff805 	stb	zero,-32(fp)
		BitMask = 0x01 << BitEndIndex;
 1081584:	e0bffe03 	ldbu	r2,-8(fp)
 1081588:	00c00044 	movi	r3,1
 108158c:	1884983a 	sll	r2,r3,r2
 1081590:	e0bff845 	stb	r2,-31(fp)
		for(i=0;i<BitNum;i++){
 1081594:	e03ff915 	stw	zero,-28(fp)
 1081598:	e0bfff03 	ldbu	r2,-4(fp)
 108159c:	e0fff917 	ldw	r3,-28(fp)
 10815a0:	18800b0e 	bge	r3,r2,10815d0 <_ZN3MPU8readBitsEmhhhPh+0xac>
			Mask |= BitMask;
 10815a4:	e0fff803 	ldbu	r3,-32(fp)
 10815a8:	e0bff843 	ldbu	r2,-31(fp)
 10815ac:	1884b03a 	or	r2,r3,r2
 10815b0:	e0bff805 	stb	r2,-32(fp)
			BitMask >>= 1;
 10815b4:	e0bff843 	ldbu	r2,-31(fp)
 10815b8:	1005d07a 	srai	r2,r2,1
 10815bc:	e0bff845 	stb	r2,-31(fp)
	bSuccess = readBytes(devAddr, RegIndex, 1, Buffer);
	if (bSuccess){
		// create mask
		Mask = 0x00;
		BitMask = 0x01 << BitEndIndex;
		for(i=0;i<BitNum;i++){
 10815c0:	e0bff917 	ldw	r2,-28(fp)
 10815c4:	10800044 	addi	r2,r2,1
 10815c8:	e0bff915 	stw	r2,-28(fp)
 10815cc:	003ff206 	br	1081598 <__alt_data_end+0xfffb81b8>
			Mask |= BitMask;
			BitMask >>= 1;
		}
		*Buffer &= Mask;
 10815d0:	e0800317 	ldw	r2,12(fp)
 10815d4:	10c00003 	ldbu	r3,0(r2)
 10815d8:	e0bff803 	ldbu	r2,-32(fp)
 10815dc:	1884703a 	and	r2,r3,r2
 10815e0:	1007883a 	mov	r3,r2
 10815e4:	e0800317 	ldw	r2,12(fp)
 10815e8:	10c00005 	stb	r3,0(r2)
		*Buffer >>= (BitEndIndex-BitNum+1);
 10815ec:	e0800317 	ldw	r2,12(fp)
 10815f0:	10800003 	ldbu	r2,0(r2)
 10815f4:	10c03fcc 	andi	r3,r2,255
 10815f8:	e13ffe03 	ldbu	r4,-8(fp)
 10815fc:	e0bfff03 	ldbu	r2,-4(fp)
 1081600:	2085c83a 	sub	r2,r4,r2
 1081604:	10800044 	addi	r2,r2,1
 1081608:	1885d83a 	sra	r2,r3,r2
 108160c:	1007883a 	mov	r3,r2
 1081610:	e0800317 	ldw	r2,12(fp)
 1081614:	10c00005 	stb	r3,0(r2)
	}

	return bSuccess;
 1081618:	e0bffa03 	ldbu	r2,-24(fp)
}
 108161c:	e037883a 	mov	sp,fp
 1081620:	dfc00117 	ldw	ra,4(sp)
 1081624:	df000017 	ldw	fp,0(sp)
 1081628:	dec00204 	addi	sp,sp,8
 108162c:	f800283a 	ret

01081630 <_ZN3MPU10initializeEv>:



void MPU::initialize() {
 1081630:	defffd04 	addi	sp,sp,-12
 1081634:	dfc00215 	stw	ra,8(sp)
 1081638:	df000115 	stw	fp,4(sp)
 108163c:	df000104 	addi	fp,sp,4
 1081640:	e13fff15 	stw	r4,-4(fp)
    setClockSource(MPU6050_CLOCK_INTERNAL);
 1081644:	000b883a 	mov	r5,zero
 1081648:	e13fff17 	ldw	r4,-4(fp)
 108164c:	10817700 	call	1081770 <_ZN3MPU14setClockSourceEh>
    setFullScaleGyroRange(MPU6050_GYRO_FS_2000);
 1081650:	014000c4 	movi	r5,3
 1081654:	e13fff17 	ldw	r4,-4(fp)
 1081658:	10817d40 	call	10817d4 <_ZN3MPU21setFullScaleGyroRangeEh>
    setFullScaleAccelRange(MPU6050_ACCEL_FS_2);
 108165c:	000b883a 	mov	r5,zero
 1081660:	e13fff17 	ldw	r4,-4(fp)
 1081664:	10818380 	call	1081838 <_ZN3MPU22setFullScaleAccelRangeEh>
    setDLPF(1);
 1081668:	01400044 	movi	r5,1
 108166c:	e13fff17 	ldw	r4,-4(fp)
 1081670:	108194c0 	call	108194c <_ZN3MPU7setDLPFEh>
    setSample_div(9);
 1081674:	01400244 	movi	r5,9
 1081678:	e13fff17 	ldw	r4,-4(fp)
 108167c:	108189c0 	call	108189c <_ZN3MPU13setSample_divEh>
    setIntEnable(1);
 1081680:	01400044 	movi	r5,1
 1081684:	e13fff17 	ldw	r4,-4(fp)
 1081688:	10818f40 	call	10818f4 <_ZN3MPU12setIntEnableEh>
    setSleepEnabled(false); // thanks to Jack Elston for pointing this one out!
 108168c:	000b883a 	mov	r5,zero
 1081690:	e13fff17 	ldw	r4,-4(fp)
 1081694:	10816b00 	call	10816b0 <_ZN3MPU15setSleepEnabledEb>
}
 1081698:	0001883a 	nop
 108169c:	e037883a 	mov	sp,fp
 10816a0:	dfc00117 	ldw	ra,4(sp)
 10816a4:	df000017 	ldw	fp,0(sp)
 10816a8:	dec00204 	addi	sp,sp,8
 10816ac:	f800283a 	ret

010816b0 <_ZN3MPU15setSleepEnabledEb>:


void MPU::setSleepEnabled(bool enabled){
 10816b0:	defffb04 	addi	sp,sp,-20
 10816b4:	dfc00415 	stw	ra,16(sp)
 10816b8:	df000315 	stw	fp,12(sp)
 10816bc:	df000304 	addi	fp,sp,12
 10816c0:	e13ffe15 	stw	r4,-8(fp)
 10816c4:	2805883a 	mov	r2,r5
 10816c8:	e0bfff05 	stb	r2,-4(fp)
	writeBits(devAddr, MPU6050_RA_PWR_MGMT_1, MPU6050_PWR1_SLEEP_BIT, enabled);
 10816cc:	e0bffe17 	ldw	r2,-8(fp)
 10816d0:	10800483 	ldbu	r2,18(r2)
 10816d4:	10c03fcc 	andi	r3,r2,255
 10816d8:	e0bfff03 	ldbu	r2,-4(fp)
 10816dc:	d8800015 	stw	r2,0(sp)
 10816e0:	01c00184 	movi	r7,6
 10816e4:	01801ac4 	movi	r6,107
 10816e8:	180b883a 	mov	r5,r3
 10816ec:	e13ffe17 	ldw	r4,-8(fp)
 10816f0:	10813680 	call	1081368 <_ZN3MPU9writeBitsEmhhb>
}
 10816f4:	0001883a 	nop
 10816f8:	e037883a 	mov	sp,fp
 10816fc:	dfc00117 	ldw	ra,4(sp)
 1081700:	df000017 	ldw	fp,0(sp)
 1081704:	dec00204 	addi	sp,sp,8
 1081708:	f800283a 	ret

0108170c <_ZN3MPU11getDeviceIDEv>:





uint8_t MPU::getDeviceID(){
 108170c:	defffb04 	addi	sp,sp,-20
 1081710:	dfc00415 	stw	ra,16(sp)
 1081714:	df000315 	stw	fp,12(sp)
 1081718:	df000304 	addi	fp,sp,12
 108171c:	e13fff15 	stw	r4,-4(fp)
    readBits(devAddr, MPU6050_RA_WHO_AM_I, MPU6050_WHO_AM_I_BIT, MPU6050_WHO_AM_I_LENGTH, buffer);
 1081720:	e0bfff17 	ldw	r2,-4(fp)
 1081724:	10800483 	ldbu	r2,18(r2)
 1081728:	10c03fcc 	andi	r3,r2,255
 108172c:	e0bfff17 	ldw	r2,-4(fp)
 1081730:	10800104 	addi	r2,r2,4
 1081734:	d8800115 	stw	r2,4(sp)
 1081738:	00800184 	movi	r2,6
 108173c:	d8800015 	stw	r2,0(sp)
 1081740:	01c00184 	movi	r7,6
 1081744:	01801d44 	movi	r6,117
 1081748:	180b883a 	mov	r5,r3
 108174c:	e13fff17 	ldw	r4,-4(fp)
 1081750:	10815240 	call	1081524 <_ZN3MPU8readBitsEmhhhPh>
    return buffer[0];
 1081754:	e0bfff17 	ldw	r2,-4(fp)
 1081758:	10800103 	ldbu	r2,4(r2)

}
 108175c:	e037883a 	mov	sp,fp
 1081760:	dfc00117 	ldw	ra,4(sp)
 1081764:	df000017 	ldw	fp,0(sp)
 1081768:	dec00204 	addi	sp,sp,8
 108176c:	f800283a 	ret

01081770 <_ZN3MPU14setClockSourceEh>:

void MPU::setClockSource(uint8_t source){
 1081770:	defffa04 	addi	sp,sp,-24
 1081774:	dfc00515 	stw	ra,20(sp)
 1081778:	df000415 	stw	fp,16(sp)
 108177c:	df000404 	addi	fp,sp,16
 1081780:	e13ffe15 	stw	r4,-8(fp)
 1081784:	2805883a 	mov	r2,r5
 1081788:	e0bfff05 	stb	r2,-4(fp)
	writeBits(devAddr, MPU6050_RA_PWR_MGMT_1, MPU6050_PWR1_CLKSEL_BIT, MPU6050_PWR1_CLKSEL_LENGTH, source);
 108178c:	e0bffe17 	ldw	r2,-8(fp)
 1081790:	10800483 	ldbu	r2,18(r2)
 1081794:	10c03fcc 	andi	r3,r2,255
 1081798:	e0bfff03 	ldbu	r2,-4(fp)
 108179c:	d8800115 	stw	r2,4(sp)
 10817a0:	008000c4 	movi	r2,3
 10817a4:	d8800015 	stw	r2,0(sp)
 10817a8:	01c00084 	movi	r7,2
 10817ac:	01801ac4 	movi	r6,107
 10817b0:	180b883a 	mov	r5,r3
 10817b4:	e13ffe17 	ldw	r4,-8(fp)
 10817b8:	10813e80 	call	10813e8 <_ZN3MPU9writeBitsEmhhhh>
}
 10817bc:	0001883a 	nop
 10817c0:	e037883a 	mov	sp,fp
 10817c4:	dfc00117 	ldw	ra,4(sp)
 10817c8:	df000017 	ldw	fp,0(sp)
 10817cc:	dec00204 	addi	sp,sp,8
 10817d0:	f800283a 	ret

010817d4 <_ZN3MPU21setFullScaleGyroRangeEh>:
 * @see MPU6050_GYRO_FS_250
 * @see MPU6050_RA_GYRO_CONFIG
 * @see MPU6050_GCONFIG_FS_SEL_BIT
 * @see MPU6050_GCONFIG_FS_SEL_LENGTH
 */
void MPU::setFullScaleGyroRange(uint8_t range) {
 10817d4:	defffa04 	addi	sp,sp,-24
 10817d8:	dfc00515 	stw	ra,20(sp)
 10817dc:	df000415 	stw	fp,16(sp)
 10817e0:	df000404 	addi	fp,sp,16
 10817e4:	e13ffe15 	stw	r4,-8(fp)
 10817e8:	2805883a 	mov	r2,r5
 10817ec:	e0bfff05 	stb	r2,-4(fp)
	writeBits(devAddr, MPU6050_RA_GYRO_CONFIG, MPU6050_GCONFIG_FS_SEL_BIT, MPU6050_GCONFIG_FS_SEL_LENGTH, range);
 10817f0:	e0bffe17 	ldw	r2,-8(fp)
 10817f4:	10800483 	ldbu	r2,18(r2)
 10817f8:	10c03fcc 	andi	r3,r2,255
 10817fc:	e0bfff03 	ldbu	r2,-4(fp)
 1081800:	d8800115 	stw	r2,4(sp)
 1081804:	00800084 	movi	r2,2
 1081808:	d8800015 	stw	r2,0(sp)
 108180c:	01c00104 	movi	r7,4
 1081810:	018006c4 	movi	r6,27
 1081814:	180b883a 	mov	r5,r3
 1081818:	e13ffe17 	ldw	r4,-8(fp)
 108181c:	10813e80 	call	10813e8 <_ZN3MPU9writeBitsEmhhhh>
}
 1081820:	0001883a 	nop
 1081824:	e037883a 	mov	sp,fp
 1081828:	dfc00117 	ldw	ra,4(sp)
 108182c:	df000017 	ldw	fp,0(sp)
 1081830:	dec00204 	addi	sp,sp,8
 1081834:	f800283a 	ret

01081838 <_ZN3MPU22setFullScaleAccelRangeEh>:

/** Set full-scale accelerometer range.
 * @param range New full-scale accelerometer range setting
 * @see getFullScaleAccelRange()
 */
void MPU::setFullScaleAccelRange(uint8_t range) {
 1081838:	defffa04 	addi	sp,sp,-24
 108183c:	dfc00515 	stw	ra,20(sp)
 1081840:	df000415 	stw	fp,16(sp)
 1081844:	df000404 	addi	fp,sp,16
 1081848:	e13ffe15 	stw	r4,-8(fp)
 108184c:	2805883a 	mov	r2,r5
 1081850:	e0bfff05 	stb	r2,-4(fp)
    writeBits(devAddr, MPU6050_RA_ACCEL_CONFIG, MPU6050_ACONFIG_AFS_SEL_BIT, MPU6050_ACONFIG_AFS_SEL_LENGTH, range);
 1081854:	e0bffe17 	ldw	r2,-8(fp)
 1081858:	10800483 	ldbu	r2,18(r2)
 108185c:	10c03fcc 	andi	r3,r2,255
 1081860:	e0bfff03 	ldbu	r2,-4(fp)
 1081864:	d8800115 	stw	r2,4(sp)
 1081868:	00800084 	movi	r2,2
 108186c:	d8800015 	stw	r2,0(sp)
 1081870:	01c00104 	movi	r7,4
 1081874:	01800704 	movi	r6,28
 1081878:	180b883a 	mov	r5,r3
 108187c:	e13ffe17 	ldw	r4,-8(fp)
 1081880:	10813e80 	call	10813e8 <_ZN3MPU9writeBitsEmhhhh>
}
 1081884:	0001883a 	nop
 1081888:	e037883a 	mov	sp,fp
 108188c:	dfc00117 	ldw	ra,4(sp)
 1081890:	df000017 	ldw	fp,0(sp)
 1081894:	dec00204 	addi	sp,sp,8
 1081898:	f800283a 	ret

0108189c <_ZN3MPU13setSample_divEh>:
void MPU::setSample_div(uint8_t div_rate) {
 108189c:	defffc04 	addi	sp,sp,-16
 10818a0:	dfc00315 	stw	ra,12(sp)
 10818a4:	df000215 	stw	fp,8(sp)
 10818a8:	df000204 	addi	fp,sp,8
 10818ac:	e13ffe15 	stw	r4,-8(fp)
 10818b0:	2805883a 	mov	r2,r5
 10818b4:	e0bfff05 	stb	r2,-4(fp)
	WriteReg(devAddr, MPU6050_RA_SMPLRT_DIV, div_rate);
 10818b8:	e0bffe17 	ldw	r2,-8(fp)
 10818bc:	10800483 	ldbu	r2,18(r2)
 10818c0:	10803fcc 	andi	r2,r2,255
 10818c4:	e0ffff03 	ldbu	r3,-4(fp)
 10818c8:	180f883a 	mov	r7,r3
 10818cc:	01800644 	movi	r6,25
 10818d0:	100b883a 	mov	r5,r2
 10818d4:	e13ffe17 	ldw	r4,-8(fp)
 10818d8:	10811100 	call	1081110 <_ZN3MPU8WriteRegEmhh>
}
 10818dc:	0001883a 	nop
 10818e0:	e037883a 	mov	sp,fp
 10818e4:	dfc00117 	ldw	ra,4(sp)
 10818e8:	df000017 	ldw	fp,0(sp)
 10818ec:	dec00204 	addi	sp,sp,8
 10818f0:	f800283a 	ret

010818f4 <_ZN3MPU12setIntEnableEh>:
void MPU::setIntEnable(uint8_t enable) {
 10818f4:	defffc04 	addi	sp,sp,-16
 10818f8:	dfc00315 	stw	ra,12(sp)
 10818fc:	df000215 	stw	fp,8(sp)
 1081900:	df000204 	addi	fp,sp,8
 1081904:	e13ffe15 	stw	r4,-8(fp)
 1081908:	2805883a 	mov	r2,r5
 108190c:	e0bfff05 	stb	r2,-4(fp)
	WriteReg(devAddr, MPU6050_RA_INT_ENABLE, enable);
 1081910:	e0bffe17 	ldw	r2,-8(fp)
 1081914:	10800483 	ldbu	r2,18(r2)
 1081918:	10803fcc 	andi	r2,r2,255
 108191c:	e0ffff03 	ldbu	r3,-4(fp)
 1081920:	180f883a 	mov	r7,r3
 1081924:	01800e04 	movi	r6,56
 1081928:	100b883a 	mov	r5,r2
 108192c:	e13ffe17 	ldw	r4,-8(fp)
 1081930:	10811100 	call	1081110 <_ZN3MPU8WriteRegEmhh>
}
 1081934:	0001883a 	nop
 1081938:	e037883a 	mov	sp,fp
 108193c:	dfc00117 	ldw	ra,4(sp)
 1081940:	df000017 	ldw	fp,0(sp)
 1081944:	dec00204 	addi	sp,sp,8
 1081948:	f800283a 	ret

0108194c <_ZN3MPU7setDLPFEh>:

void MPU::setDLPF(uint8_t config){
 108194c:	defffc04 	addi	sp,sp,-16
 1081950:	dfc00315 	stw	ra,12(sp)
 1081954:	df000215 	stw	fp,8(sp)
 1081958:	df000204 	addi	fp,sp,8
 108195c:	e13ffe15 	stw	r4,-8(fp)
 1081960:	2805883a 	mov	r2,r5
 1081964:	e0bfff05 	stb	r2,-4(fp)
	WriteReg(devAddr, MPU6050_RA_CONFIG, config);
 1081968:	e0bffe17 	ldw	r2,-8(fp)
 108196c:	10800483 	ldbu	r2,18(r2)
 1081970:	10803fcc 	andi	r2,r2,255
 1081974:	e0ffff03 	ldbu	r3,-4(fp)
 1081978:	180f883a 	mov	r7,r3
 108197c:	01800684 	movi	r6,26
 1081980:	100b883a 	mov	r5,r2
 1081984:	e13ffe17 	ldw	r4,-8(fp)
 1081988:	10811100 	call	1081110 <_ZN3MPU8WriteRegEmhh>
}
 108198c:	0001883a 	nop
 1081990:	e037883a 	mov	sp,fp
 1081994:	dfc00117 	ldw	ra,4(sp)
 1081998:	df000017 	ldw	fp,0(sp)
 108199c:	dec00204 	addi	sp,sp,8
 10819a0:	f800283a 	ret

010819a4 <_ZN3MPU10getMotion9EPsS0_S0_S0_S0_S0_S0_S0_S0_>:
 * @see getMotion6()
 * @see getAcceleration()
 * @see getRotation()
 * @see MPU6050_RA_ACCEL_XOUT_H
 */
void MPU::getMotion9( int16_t* ax, int16_t* ay, int16_t* az, int16_t* gx, int16_t* gy, int16_t* gz, int16_t* mx, int16_t* my, int16_t* mz) {
 10819a4:	defff704 	addi	sp,sp,-36
 10819a8:	dfc00815 	stw	ra,32(sp)
 10819ac:	df000715 	stw	fp,28(sp)
 10819b0:	df000704 	addi	fp,sp,28
 10819b4:	e13ffc15 	stw	r4,-16(fp)
 10819b8:	e17ffd15 	stw	r5,-12(fp)
 10819bc:	e1bffe15 	stw	r6,-8(fp)
 10819c0:	e1ffff15 	stw	r7,-4(fp)
    getMotion6(ax, ay, az, gx, gy, gz);
 10819c4:	e0800417 	ldw	r2,16(fp)
 10819c8:	d8800215 	stw	r2,8(sp)
 10819cc:	e0800317 	ldw	r2,12(fp)
 10819d0:	d8800115 	stw	r2,4(sp)
 10819d4:	e0800217 	ldw	r2,8(fp)
 10819d8:	d8800015 	stw	r2,0(sp)
 10819dc:	e1ffff17 	ldw	r7,-4(fp)
 10819e0:	e1bffe17 	ldw	r6,-8(fp)
 10819e4:	e17ffd17 	ldw	r5,-12(fp)
 10819e8:	e13ffc17 	ldw	r4,-16(fp)
 10819ec:	1081a080 	call	1081a08 <_ZN3MPU10getMotion6EPsS0_S0_S0_S0_S0_>
    // TODO: magnetometer integration
}
 10819f0:	0001883a 	nop
 10819f4:	e037883a 	mov	sp,fp
 10819f8:	dfc00117 	ldw	ra,4(sp)
 10819fc:	df000017 	ldw	fp,0(sp)
 1081a00:	dec00204 	addi	sp,sp,8
 1081a04:	f800283a 	ret

01081a08 <_ZN3MPU10getMotion6EPsS0_S0_S0_S0_S0_>:
 * @param gz 16-bit signed integer container for gyroscope Z-axis value
 * @see getAcceleration()
 * @see getRotation()
 * @see MPU6050_RA_ACCEL_XOUT_H
 */
void MPU::getMotion6(int16_t* ax, int16_t* ay, int16_t* az, int16_t* gx, int16_t* gy, int16_t* gz) {
 1081a08:	defff904 	addi	sp,sp,-28
 1081a0c:	dfc00615 	stw	ra,24(sp)
 1081a10:	df000515 	stw	fp,20(sp)
 1081a14:	df000504 	addi	fp,sp,20
 1081a18:	e13ffc15 	stw	r4,-16(fp)
 1081a1c:	e17ffd15 	stw	r5,-12(fp)
 1081a20:	e1bffe15 	stw	r6,-8(fp)
 1081a24:	e1ffff15 	stw	r7,-4(fp)
    readBytes(devAddr, MPU6050_RA_ACCEL_XOUT_H, 14, buffer);
 1081a28:	e0bffc17 	ldw	r2,-16(fp)
 1081a2c:	10800483 	ldbu	r2,18(r2)
 1081a30:	10c03fcc 	andi	r3,r2,255
 1081a34:	e0bffc17 	ldw	r2,-16(fp)
 1081a38:	10800104 	addi	r2,r2,4
 1081a3c:	d8800015 	stw	r2,0(sp)
 1081a40:	01c00384 	movi	r7,14
 1081a44:	01800ec4 	movi	r6,59
 1081a48:	180b883a 	mov	r5,r3
 1081a4c:	e13ffc17 	ldw	r4,-16(fp)
 1081a50:	10812000 	call	1081200 <_ZN3MPU9readBytesEmhtPh>
    //printf("buffer[4]=%xh,\r\n",buffer[4]);
    //printf("buffer[5]=%xh,\r\n",buffer[5]);
    *ax = (((int16_t)buffer[0]) << 8) | buffer[1];
 1081a54:	e0bffc17 	ldw	r2,-16(fp)
 1081a58:	10800103 	ldbu	r2,4(r2)
 1081a5c:	10803fcc 	andi	r2,r2,255
 1081a60:	1004923a 	slli	r2,r2,8
 1081a64:	1007883a 	mov	r3,r2
 1081a68:	e0bffc17 	ldw	r2,-16(fp)
 1081a6c:	10800143 	ldbu	r2,5(r2)
 1081a70:	10803fcc 	andi	r2,r2,255
 1081a74:	1884b03a 	or	r2,r3,r2
 1081a78:	1007883a 	mov	r3,r2
 1081a7c:	e0bffd17 	ldw	r2,-12(fp)
 1081a80:	10c0000d 	sth	r3,0(r2)
    *ay = (((int16_t)buffer[2]) << 8) | buffer[3];
 1081a84:	e0bffc17 	ldw	r2,-16(fp)
 1081a88:	10800183 	ldbu	r2,6(r2)
 1081a8c:	10803fcc 	andi	r2,r2,255
 1081a90:	1004923a 	slli	r2,r2,8
 1081a94:	1007883a 	mov	r3,r2
 1081a98:	e0bffc17 	ldw	r2,-16(fp)
 1081a9c:	108001c3 	ldbu	r2,7(r2)
 1081aa0:	10803fcc 	andi	r2,r2,255
 1081aa4:	1884b03a 	or	r2,r3,r2
 1081aa8:	1007883a 	mov	r3,r2
 1081aac:	e0bffe17 	ldw	r2,-8(fp)
 1081ab0:	10c0000d 	sth	r3,0(r2)
    *az = (((int16_t)buffer[4]) << 8) | buffer[5];
 1081ab4:	e0bffc17 	ldw	r2,-16(fp)
 1081ab8:	10800203 	ldbu	r2,8(r2)
 1081abc:	10803fcc 	andi	r2,r2,255
 1081ac0:	1004923a 	slli	r2,r2,8
 1081ac4:	1007883a 	mov	r3,r2
 1081ac8:	e0bffc17 	ldw	r2,-16(fp)
 1081acc:	10800243 	ldbu	r2,9(r2)
 1081ad0:	10803fcc 	andi	r2,r2,255
 1081ad4:	1884b03a 	or	r2,r3,r2
 1081ad8:	1007883a 	mov	r3,r2
 1081adc:	e0bfff17 	ldw	r2,-4(fp)
 1081ae0:	10c0000d 	sth	r3,0(r2)
    *gx = (((int16_t)buffer[8]) << 8) | buffer[9];
 1081ae4:	e0bffc17 	ldw	r2,-16(fp)
 1081ae8:	10800303 	ldbu	r2,12(r2)
 1081aec:	10803fcc 	andi	r2,r2,255
 1081af0:	1004923a 	slli	r2,r2,8
 1081af4:	1007883a 	mov	r3,r2
 1081af8:	e0bffc17 	ldw	r2,-16(fp)
 1081afc:	10800343 	ldbu	r2,13(r2)
 1081b00:	10803fcc 	andi	r2,r2,255
 1081b04:	1884b03a 	or	r2,r3,r2
 1081b08:	1007883a 	mov	r3,r2
 1081b0c:	e0800217 	ldw	r2,8(fp)
 1081b10:	10c0000d 	sth	r3,0(r2)
    *gy = (((int16_t)buffer[10]) << 8) | buffer[11];
 1081b14:	e0bffc17 	ldw	r2,-16(fp)
 1081b18:	10800383 	ldbu	r2,14(r2)
 1081b1c:	10803fcc 	andi	r2,r2,255
 1081b20:	1004923a 	slli	r2,r2,8
 1081b24:	1007883a 	mov	r3,r2
 1081b28:	e0bffc17 	ldw	r2,-16(fp)
 1081b2c:	108003c3 	ldbu	r2,15(r2)
 1081b30:	10803fcc 	andi	r2,r2,255
 1081b34:	1884b03a 	or	r2,r3,r2
 1081b38:	1007883a 	mov	r3,r2
 1081b3c:	e0800317 	ldw	r2,12(fp)
 1081b40:	10c0000d 	sth	r3,0(r2)
    *gz = (((int16_t)buffer[12]) << 8) | buffer[13];
 1081b44:	e0bffc17 	ldw	r2,-16(fp)
 1081b48:	10800403 	ldbu	r2,16(r2)
 1081b4c:	10803fcc 	andi	r2,r2,255
 1081b50:	1004923a 	slli	r2,r2,8
 1081b54:	1007883a 	mov	r3,r2
 1081b58:	e0bffc17 	ldw	r2,-16(fp)
 1081b5c:	10800443 	ldbu	r2,17(r2)
 1081b60:	10803fcc 	andi	r2,r2,255
 1081b64:	1884b03a 	or	r2,r3,r2
 1081b68:	1007883a 	mov	r3,r2
 1081b6c:	e0800417 	ldw	r2,16(fp)
 1081b70:	10c0000d 	sth	r3,0(r2)
}
 1081b74:	0001883a 	nop
 1081b78:	e037883a 	mov	sp,fp
 1081b7c:	dfc00117 	ldw	ra,4(sp)
 1081b80:	df000017 	ldw	fp,0(sp)
 1081b84:	dec00204 	addi	sp,sp,8
 1081b88:	f800283a 	ret

01081b8c <_ZN3MPU15getAccelerationEPsS0_S0_>:
 * @param x 16-bit signed integer container for X-axis acceleration
 * @param y 16-bit signed integer container for Y-axis acceleration
 * @param z 16-bit signed integer container for Z-axis acceleration
 * @see MPU6050_RA_GYRO_XOUT_H
 */
void MPU::getAcceleration(int16_t* x, int16_t* y, int16_t* z) {
 1081b8c:	defff904 	addi	sp,sp,-28
 1081b90:	dfc00615 	stw	ra,24(sp)
 1081b94:	df000515 	stw	fp,20(sp)
 1081b98:	df000504 	addi	fp,sp,20
 1081b9c:	e13ffc15 	stw	r4,-16(fp)
 1081ba0:	e17ffd15 	stw	r5,-12(fp)
 1081ba4:	e1bffe15 	stw	r6,-8(fp)
 1081ba8:	e1ffff15 	stw	r7,-4(fp)
    readBytes(devAddr, MPU6050_RA_ACCEL_XOUT_H, 6, buffer);
 1081bac:	e0bffc17 	ldw	r2,-16(fp)
 1081bb0:	10800483 	ldbu	r2,18(r2)
 1081bb4:	10c03fcc 	andi	r3,r2,255
 1081bb8:	e0bffc17 	ldw	r2,-16(fp)
 1081bbc:	10800104 	addi	r2,r2,4
 1081bc0:	d8800015 	stw	r2,0(sp)
 1081bc4:	01c00184 	movi	r7,6
 1081bc8:	01800ec4 	movi	r6,59
 1081bcc:	180b883a 	mov	r5,r3
 1081bd0:	e13ffc17 	ldw	r4,-16(fp)
 1081bd4:	10812000 	call	1081200 <_ZN3MPU9readBytesEmhtPh>
    *x = (((int16_t)buffer[0]) << 8) | buffer[1];
 1081bd8:	e0bffc17 	ldw	r2,-16(fp)
 1081bdc:	10800103 	ldbu	r2,4(r2)
 1081be0:	10803fcc 	andi	r2,r2,255
 1081be4:	1004923a 	slli	r2,r2,8
 1081be8:	1007883a 	mov	r3,r2
 1081bec:	e0bffc17 	ldw	r2,-16(fp)
 1081bf0:	10800143 	ldbu	r2,5(r2)
 1081bf4:	10803fcc 	andi	r2,r2,255
 1081bf8:	1884b03a 	or	r2,r3,r2
 1081bfc:	1007883a 	mov	r3,r2
 1081c00:	e0bffd17 	ldw	r2,-12(fp)
 1081c04:	10c0000d 	sth	r3,0(r2)
    *y = (((int16_t)buffer[2]) << 8) | buffer[3];
 1081c08:	e0bffc17 	ldw	r2,-16(fp)
 1081c0c:	10800183 	ldbu	r2,6(r2)
 1081c10:	10803fcc 	andi	r2,r2,255
 1081c14:	1004923a 	slli	r2,r2,8
 1081c18:	1007883a 	mov	r3,r2
 1081c1c:	e0bffc17 	ldw	r2,-16(fp)
 1081c20:	108001c3 	ldbu	r2,7(r2)
 1081c24:	10803fcc 	andi	r2,r2,255
 1081c28:	1884b03a 	or	r2,r3,r2
 1081c2c:	1007883a 	mov	r3,r2
 1081c30:	e0bffe17 	ldw	r2,-8(fp)
 1081c34:	10c0000d 	sth	r3,0(r2)
    *z = (((int16_t)buffer[4]) << 8) | buffer[5];
 1081c38:	e0bffc17 	ldw	r2,-16(fp)
 1081c3c:	10800203 	ldbu	r2,8(r2)
 1081c40:	10803fcc 	andi	r2,r2,255
 1081c44:	1004923a 	slli	r2,r2,8
 1081c48:	1007883a 	mov	r3,r2
 1081c4c:	e0bffc17 	ldw	r2,-16(fp)
 1081c50:	10800243 	ldbu	r2,9(r2)
 1081c54:	10803fcc 	andi	r2,r2,255
 1081c58:	1884b03a 	or	r2,r3,r2
 1081c5c:	1007883a 	mov	r3,r2
 1081c60:	e0bfff17 	ldw	r2,-4(fp)
 1081c64:	10c0000d 	sth	r3,0(r2)
}
 1081c68:	0001883a 	nop
 1081c6c:	e037883a 	mov	sp,fp
 1081c70:	dfc00117 	ldw	ra,4(sp)
 1081c74:	df000017 	ldw	fp,0(sp)
 1081c78:	dec00204 	addi	sp,sp,8
 1081c7c:	f800283a 	ret

01081c80 <_ZN3MPU16getAccelerationXEv>:
/** Get X-axis accelerometer reading.
 * @return X-axis acceleration measurement in 16-bit 2's complement format
 * @see getMotion6()
 * @see MPU6050_RA_ACCEL_XOUT_H
 */
int16_t MPU::getAccelerationX() {
 1081c80:	defffc04 	addi	sp,sp,-16
 1081c84:	dfc00315 	stw	ra,12(sp)
 1081c88:	df000215 	stw	fp,8(sp)
 1081c8c:	df000204 	addi	fp,sp,8
 1081c90:	e13fff15 	stw	r4,-4(fp)
    readBytes(devAddr, MPU6050_RA_ACCEL_XOUT_H, 2, buffer);
 1081c94:	e0bfff17 	ldw	r2,-4(fp)
 1081c98:	10800483 	ldbu	r2,18(r2)
 1081c9c:	10c03fcc 	andi	r3,r2,255
 1081ca0:	e0bfff17 	ldw	r2,-4(fp)
 1081ca4:	10800104 	addi	r2,r2,4
 1081ca8:	d8800015 	stw	r2,0(sp)
 1081cac:	01c00084 	movi	r7,2
 1081cb0:	01800ec4 	movi	r6,59
 1081cb4:	180b883a 	mov	r5,r3
 1081cb8:	e13fff17 	ldw	r4,-4(fp)
 1081cbc:	10812000 	call	1081200 <_ZN3MPU9readBytesEmhtPh>
    return (((int16_t)buffer[0]) << 8) | buffer[1];
 1081cc0:	e0bfff17 	ldw	r2,-4(fp)
 1081cc4:	10800103 	ldbu	r2,4(r2)
 1081cc8:	10803fcc 	andi	r2,r2,255
 1081ccc:	1004923a 	slli	r2,r2,8
 1081cd0:	1007883a 	mov	r3,r2
 1081cd4:	e0bfff17 	ldw	r2,-4(fp)
 1081cd8:	10800143 	ldbu	r2,5(r2)
 1081cdc:	10803fcc 	andi	r2,r2,255
 1081ce0:	1884b03a 	or	r2,r3,r2
}
 1081ce4:	e037883a 	mov	sp,fp
 1081ce8:	dfc00117 	ldw	ra,4(sp)
 1081cec:	df000017 	ldw	fp,0(sp)
 1081cf0:	dec00204 	addi	sp,sp,8
 1081cf4:	f800283a 	ret

01081cf8 <_ZN3MPU16getAccelerationYEv>:
/** Get Y-axis accelerometer reading.
 * @return Y-axis acceleration measurement in 16-bit 2's complement format
 * @see getMotion6()
 * @see MPU6050_RA_ACCEL_YOUT_H
 */
int16_t MPU::getAccelerationY() {
 1081cf8:	defffc04 	addi	sp,sp,-16
 1081cfc:	dfc00315 	stw	ra,12(sp)
 1081d00:	df000215 	stw	fp,8(sp)
 1081d04:	df000204 	addi	fp,sp,8
 1081d08:	e13fff15 	stw	r4,-4(fp)
    readBytes(devAddr, MPU6050_RA_ACCEL_YOUT_H, 2, buffer);
 1081d0c:	e0bfff17 	ldw	r2,-4(fp)
 1081d10:	10800483 	ldbu	r2,18(r2)
 1081d14:	10c03fcc 	andi	r3,r2,255
 1081d18:	e0bfff17 	ldw	r2,-4(fp)
 1081d1c:	10800104 	addi	r2,r2,4
 1081d20:	d8800015 	stw	r2,0(sp)
 1081d24:	01c00084 	movi	r7,2
 1081d28:	01800f44 	movi	r6,61
 1081d2c:	180b883a 	mov	r5,r3
 1081d30:	e13fff17 	ldw	r4,-4(fp)
 1081d34:	10812000 	call	1081200 <_ZN3MPU9readBytesEmhtPh>
    return (((int16_t)buffer[0]) << 8) | buffer[1];
 1081d38:	e0bfff17 	ldw	r2,-4(fp)
 1081d3c:	10800103 	ldbu	r2,4(r2)
 1081d40:	10803fcc 	andi	r2,r2,255
 1081d44:	1004923a 	slli	r2,r2,8
 1081d48:	1007883a 	mov	r3,r2
 1081d4c:	e0bfff17 	ldw	r2,-4(fp)
 1081d50:	10800143 	ldbu	r2,5(r2)
 1081d54:	10803fcc 	andi	r2,r2,255
 1081d58:	1884b03a 	or	r2,r3,r2
}
 1081d5c:	e037883a 	mov	sp,fp
 1081d60:	dfc00117 	ldw	ra,4(sp)
 1081d64:	df000017 	ldw	fp,0(sp)
 1081d68:	dec00204 	addi	sp,sp,8
 1081d6c:	f800283a 	ret

01081d70 <_ZN3MPU16getAccelerationZEv>:
/** Get Z-axis accelerometer reading.
 * @return Z-axis acceleration measurement in 16-bit 2's complement format
 * @see getMotion6()
 * @see MPU6050_RA_ACCEL_ZOUT_H
 */
int16_t MPU::getAccelerationZ() {
 1081d70:	defffc04 	addi	sp,sp,-16
 1081d74:	dfc00315 	stw	ra,12(sp)
 1081d78:	df000215 	stw	fp,8(sp)
 1081d7c:	df000204 	addi	fp,sp,8
 1081d80:	e13fff15 	stw	r4,-4(fp)
    readBytes(devAddr, MPU6050_RA_ACCEL_ZOUT_H, 2, buffer);
 1081d84:	e0bfff17 	ldw	r2,-4(fp)
 1081d88:	10800483 	ldbu	r2,18(r2)
 1081d8c:	10c03fcc 	andi	r3,r2,255
 1081d90:	e0bfff17 	ldw	r2,-4(fp)
 1081d94:	10800104 	addi	r2,r2,4
 1081d98:	d8800015 	stw	r2,0(sp)
 1081d9c:	01c00084 	movi	r7,2
 1081da0:	01800fc4 	movi	r6,63
 1081da4:	180b883a 	mov	r5,r3
 1081da8:	e13fff17 	ldw	r4,-4(fp)
 1081dac:	10812000 	call	1081200 <_ZN3MPU9readBytesEmhtPh>
    return (((int16_t)buffer[0]) << 8) | buffer[1];
 1081db0:	e0bfff17 	ldw	r2,-4(fp)
 1081db4:	10800103 	ldbu	r2,4(r2)
 1081db8:	10803fcc 	andi	r2,r2,255
 1081dbc:	1004923a 	slli	r2,r2,8
 1081dc0:	1007883a 	mov	r3,r2
 1081dc4:	e0bfff17 	ldw	r2,-4(fp)
 1081dc8:	10800143 	ldbu	r2,5(r2)
 1081dcc:	10803fcc 	andi	r2,r2,255
 1081dd0:	1884b03a 	or	r2,r3,r2
}
 1081dd4:	e037883a 	mov	sp,fp
 1081dd8:	dfc00117 	ldw	ra,4(sp)
 1081ddc:	df000017 	ldw	fp,0(sp)
 1081de0:	dec00204 	addi	sp,sp,8
 1081de4:	f800283a 	ret

01081de8 <_ZN3MPU14getTemperatureEv>:

/** Get current internal temperature.
 * @return Temperature reading in 16-bit 2's complement format
 * @see MPU6050_RA_TEMP_OUT_H
 */
int16_t MPU::getTemperature() {
 1081de8:	defffc04 	addi	sp,sp,-16
 1081dec:	dfc00315 	stw	ra,12(sp)
 1081df0:	df000215 	stw	fp,8(sp)
 1081df4:	df000204 	addi	fp,sp,8
 1081df8:	e13fff15 	stw	r4,-4(fp)
    readBytes(devAddr, MPU6050_RA_TEMP_OUT_H, 2, buffer);
 1081dfc:	e0bfff17 	ldw	r2,-4(fp)
 1081e00:	10800483 	ldbu	r2,18(r2)
 1081e04:	10c03fcc 	andi	r3,r2,255
 1081e08:	e0bfff17 	ldw	r2,-4(fp)
 1081e0c:	10800104 	addi	r2,r2,4
 1081e10:	d8800015 	stw	r2,0(sp)
 1081e14:	01c00084 	movi	r7,2
 1081e18:	01801044 	movi	r6,65
 1081e1c:	180b883a 	mov	r5,r3
 1081e20:	e13fff17 	ldw	r4,-4(fp)
 1081e24:	10812000 	call	1081200 <_ZN3MPU9readBytesEmhtPh>
    return (((int16_t)buffer[0]) << 8) | buffer[1];
 1081e28:	e0bfff17 	ldw	r2,-4(fp)
 1081e2c:	10800103 	ldbu	r2,4(r2)
 1081e30:	10803fcc 	andi	r2,r2,255
 1081e34:	1004923a 	slli	r2,r2,8
 1081e38:	1007883a 	mov	r3,r2
 1081e3c:	e0bfff17 	ldw	r2,-4(fp)
 1081e40:	10800143 	ldbu	r2,5(r2)
 1081e44:	10803fcc 	andi	r2,r2,255
 1081e48:	1884b03a 	or	r2,r3,r2
}
 1081e4c:	e037883a 	mov	sp,fp
 1081e50:	dfc00117 	ldw	ra,4(sp)
 1081e54:	df000017 	ldw	fp,0(sp)
 1081e58:	dec00204 	addi	sp,sp,8
 1081e5c:	f800283a 	ret

01081e60 <_ZN3MPU11getRotationEPsS0_S0_>:
 * @param y 16-bit signed integer container for Y-axis rotation
 * @param z 16-bit signed integer container for Z-axis rotation
 * @see getMotion6()
 * @see MPU6050_RA_GYRO_XOUT_H
 */
void MPU::getRotation(int16_t* x, int16_t* y, int16_t* z) {
 1081e60:	defff904 	addi	sp,sp,-28
 1081e64:	dfc00615 	stw	ra,24(sp)
 1081e68:	df000515 	stw	fp,20(sp)
 1081e6c:	df000504 	addi	fp,sp,20
 1081e70:	e13ffc15 	stw	r4,-16(fp)
 1081e74:	e17ffd15 	stw	r5,-12(fp)
 1081e78:	e1bffe15 	stw	r6,-8(fp)
 1081e7c:	e1ffff15 	stw	r7,-4(fp)
    readBytes(devAddr, MPU6050_RA_GYRO_XOUT_H, 6, buffer);
 1081e80:	e0bffc17 	ldw	r2,-16(fp)
 1081e84:	10800483 	ldbu	r2,18(r2)
 1081e88:	10c03fcc 	andi	r3,r2,255
 1081e8c:	e0bffc17 	ldw	r2,-16(fp)
 1081e90:	10800104 	addi	r2,r2,4
 1081e94:	d8800015 	stw	r2,0(sp)
 1081e98:	01c00184 	movi	r7,6
 1081e9c:	018010c4 	movi	r6,67
 1081ea0:	180b883a 	mov	r5,r3
 1081ea4:	e13ffc17 	ldw	r4,-16(fp)
 1081ea8:	10812000 	call	1081200 <_ZN3MPU9readBytesEmhtPh>
    *x = (((int16_t)buffer[0]) << 8) | buffer[1];
 1081eac:	e0bffc17 	ldw	r2,-16(fp)
 1081eb0:	10800103 	ldbu	r2,4(r2)
 1081eb4:	10803fcc 	andi	r2,r2,255
 1081eb8:	1004923a 	slli	r2,r2,8
 1081ebc:	1007883a 	mov	r3,r2
 1081ec0:	e0bffc17 	ldw	r2,-16(fp)
 1081ec4:	10800143 	ldbu	r2,5(r2)
 1081ec8:	10803fcc 	andi	r2,r2,255
 1081ecc:	1884b03a 	or	r2,r3,r2
 1081ed0:	1007883a 	mov	r3,r2
 1081ed4:	e0bffd17 	ldw	r2,-12(fp)
 1081ed8:	10c0000d 	sth	r3,0(r2)
    *y = (((int16_t)buffer[2]) << 8) | buffer[3];
 1081edc:	e0bffc17 	ldw	r2,-16(fp)
 1081ee0:	10800183 	ldbu	r2,6(r2)
 1081ee4:	10803fcc 	andi	r2,r2,255
 1081ee8:	1004923a 	slli	r2,r2,8
 1081eec:	1007883a 	mov	r3,r2
 1081ef0:	e0bffc17 	ldw	r2,-16(fp)
 1081ef4:	108001c3 	ldbu	r2,7(r2)
 1081ef8:	10803fcc 	andi	r2,r2,255
 1081efc:	1884b03a 	or	r2,r3,r2
 1081f00:	1007883a 	mov	r3,r2
 1081f04:	e0bffe17 	ldw	r2,-8(fp)
 1081f08:	10c0000d 	sth	r3,0(r2)
    *z = (((int16_t)buffer[4]) << 8) | buffer[5];
 1081f0c:	e0bffc17 	ldw	r2,-16(fp)
 1081f10:	10800203 	ldbu	r2,8(r2)
 1081f14:	10803fcc 	andi	r2,r2,255
 1081f18:	1004923a 	slli	r2,r2,8
 1081f1c:	1007883a 	mov	r3,r2
 1081f20:	e0bffc17 	ldw	r2,-16(fp)
 1081f24:	10800243 	ldbu	r2,9(r2)
 1081f28:	10803fcc 	andi	r2,r2,255
 1081f2c:	1884b03a 	or	r2,r3,r2
 1081f30:	1007883a 	mov	r3,r2
 1081f34:	e0bfff17 	ldw	r2,-4(fp)
 1081f38:	10c0000d 	sth	r3,0(r2)
}
 1081f3c:	0001883a 	nop
 1081f40:	e037883a 	mov	sp,fp
 1081f44:	dfc00117 	ldw	ra,4(sp)
 1081f48:	df000017 	ldw	fp,0(sp)
 1081f4c:	dec00204 	addi	sp,sp,8
 1081f50:	f800283a 	ret

01081f54 <_ZN3MPU12getRotationXEv>:
/** Get X-axis gyroscope reading.
 * @return X-axis rotation measurement in 16-bit 2's complement format
 * @see getMotion6()
 * @see MPU6050_RA_GYRO_XOUT_H
 */
int16_t MPU::getRotationX() {
 1081f54:	defffc04 	addi	sp,sp,-16
 1081f58:	dfc00315 	stw	ra,12(sp)
 1081f5c:	df000215 	stw	fp,8(sp)
 1081f60:	df000204 	addi	fp,sp,8
 1081f64:	e13fff15 	stw	r4,-4(fp)
    readBytes(devAddr, MPU6050_RA_GYRO_XOUT_H, 2, buffer);
 1081f68:	e0bfff17 	ldw	r2,-4(fp)
 1081f6c:	10800483 	ldbu	r2,18(r2)
 1081f70:	10c03fcc 	andi	r3,r2,255
 1081f74:	e0bfff17 	ldw	r2,-4(fp)
 1081f78:	10800104 	addi	r2,r2,4
 1081f7c:	d8800015 	stw	r2,0(sp)
 1081f80:	01c00084 	movi	r7,2
 1081f84:	018010c4 	movi	r6,67
 1081f88:	180b883a 	mov	r5,r3
 1081f8c:	e13fff17 	ldw	r4,-4(fp)
 1081f90:	10812000 	call	1081200 <_ZN3MPU9readBytesEmhtPh>
    return (((int16_t)buffer[0]) << 8) | buffer[1];
 1081f94:	e0bfff17 	ldw	r2,-4(fp)
 1081f98:	10800103 	ldbu	r2,4(r2)
 1081f9c:	10803fcc 	andi	r2,r2,255
 1081fa0:	1004923a 	slli	r2,r2,8
 1081fa4:	1007883a 	mov	r3,r2
 1081fa8:	e0bfff17 	ldw	r2,-4(fp)
 1081fac:	10800143 	ldbu	r2,5(r2)
 1081fb0:	10803fcc 	andi	r2,r2,255
 1081fb4:	1884b03a 	or	r2,r3,r2
}
 1081fb8:	e037883a 	mov	sp,fp
 1081fbc:	dfc00117 	ldw	ra,4(sp)
 1081fc0:	df000017 	ldw	fp,0(sp)
 1081fc4:	dec00204 	addi	sp,sp,8
 1081fc8:	f800283a 	ret

01081fcc <_ZN3MPU12getRotationYEv>:
/** Get Y-axis gyroscope reading.
 * @return Y-axis rotation measurement in 16-bit 2's complement format
 * @see getMotion6()
 * @see MPU6050_RA_GYRO_YOUT_H
 */
int16_t MPU::getRotationY() {
 1081fcc:	defffc04 	addi	sp,sp,-16
 1081fd0:	dfc00315 	stw	ra,12(sp)
 1081fd4:	df000215 	stw	fp,8(sp)
 1081fd8:	df000204 	addi	fp,sp,8
 1081fdc:	e13fff15 	stw	r4,-4(fp)
    readBytes(devAddr, MPU6050_RA_GYRO_YOUT_H, 2, buffer);
 1081fe0:	e0bfff17 	ldw	r2,-4(fp)
 1081fe4:	10800483 	ldbu	r2,18(r2)
 1081fe8:	10c03fcc 	andi	r3,r2,255
 1081fec:	e0bfff17 	ldw	r2,-4(fp)
 1081ff0:	10800104 	addi	r2,r2,4
 1081ff4:	d8800015 	stw	r2,0(sp)
 1081ff8:	01c00084 	movi	r7,2
 1081ffc:	01801144 	movi	r6,69
 1082000:	180b883a 	mov	r5,r3
 1082004:	e13fff17 	ldw	r4,-4(fp)
 1082008:	10812000 	call	1081200 <_ZN3MPU9readBytesEmhtPh>
    return (((int16_t)buffer[0]) << 8) | buffer[1];
 108200c:	e0bfff17 	ldw	r2,-4(fp)
 1082010:	10800103 	ldbu	r2,4(r2)
 1082014:	10803fcc 	andi	r2,r2,255
 1082018:	1004923a 	slli	r2,r2,8
 108201c:	1007883a 	mov	r3,r2
 1082020:	e0bfff17 	ldw	r2,-4(fp)
 1082024:	10800143 	ldbu	r2,5(r2)
 1082028:	10803fcc 	andi	r2,r2,255
 108202c:	1884b03a 	or	r2,r3,r2
}
 1082030:	e037883a 	mov	sp,fp
 1082034:	dfc00117 	ldw	ra,4(sp)
 1082038:	df000017 	ldw	fp,0(sp)
 108203c:	dec00204 	addi	sp,sp,8
 1082040:	f800283a 	ret

01082044 <_ZN3MPU12getRotationZEv>:
/** Get Z-axis gyroscope reading.
 * @return Z-axis rotation measurement in 16-bit 2's complement format
 * @see getMotion6()
 * @see MPU6050_RA_GYRO_ZOUT_H
 */
int16_t MPU::getRotationZ() {
 1082044:	defffc04 	addi	sp,sp,-16
 1082048:	dfc00315 	stw	ra,12(sp)
 108204c:	df000215 	stw	fp,8(sp)
 1082050:	df000204 	addi	fp,sp,8
 1082054:	e13fff15 	stw	r4,-4(fp)
    readBytes(devAddr, MPU6050_RA_GYRO_ZOUT_H, 2, buffer);
 1082058:	e0bfff17 	ldw	r2,-4(fp)
 108205c:	10800483 	ldbu	r2,18(r2)
 1082060:	10c03fcc 	andi	r3,r2,255
 1082064:	e0bfff17 	ldw	r2,-4(fp)
 1082068:	10800104 	addi	r2,r2,4
 108206c:	d8800015 	stw	r2,0(sp)
 1082070:	01c00084 	movi	r7,2
 1082074:	018011c4 	movi	r6,71
 1082078:	180b883a 	mov	r5,r3
 108207c:	e13fff17 	ldw	r4,-4(fp)
 1082080:	10812000 	call	1081200 <_ZN3MPU9readBytesEmhtPh>
    return (((int16_t)buffer[0]) << 8) | buffer[1];
 1082084:	e0bfff17 	ldw	r2,-4(fp)
 1082088:	10800103 	ldbu	r2,4(r2)
 108208c:	10803fcc 	andi	r2,r2,255
 1082090:	1004923a 	slli	r2,r2,8
 1082094:	1007883a 	mov	r3,r2
 1082098:	e0bfff17 	ldw	r2,-4(fp)
 108209c:	10800143 	ldbu	r2,5(r2)
 10820a0:	10803fcc 	andi	r2,r2,255
 10820a4:	1884b03a 	or	r2,r3,r2
}
 10820a8:	e037883a 	mov	sp,fp
 10820ac:	dfc00117 	ldw	ra,4(sp)
 10820b0:	df000017 	ldw	fp,0(sp)
 10820b4:	dec00204 	addi	sp,sp,8
 10820b8:	f800283a 	ret

010820bc <_ZN8CDcMotorC1Eii>:
/**************************************************************************
Function     :set motor PWM IP cyclone width of max/min
parameter    :
return value :
**************************************************************************/
CDcMotor::CDcMotor(int BaseAddress,int MeasureAddress):
 10820bc:	defffc04 	addi	sp,sp,-16
 10820c0:	df000315 	stw	fp,12(sp)
 10820c4:	df000304 	addi	fp,sp,12
 10820c8:	e13ffd15 	stw	r4,-12(fp)
 10820cc:	e17ffe15 	stw	r5,-8(fp)
 10820d0:	e1bfff15 	stw	r6,-4(fp)
	m_BaseAddress(BaseAddress),
	m_MeasureAddress(MeasureAddress),
	m_CycleWidthMini(CYCLE_WIDTH_MINI),
	m_CycleWidthMaxi(CYCLE_WIDTH_MAX)
 10820d4:	008042b4 	movhi	r2,266
 10820d8:	10b15b04 	addi	r2,r2,-14996
 10820dc:	e0fffd17 	ldw	r3,-12(fp)
 10820e0:	18800015 	stw	r2,0(r3)
 10820e4:	e0bffd17 	ldw	r2,-12(fp)
 10820e8:	e0fffe17 	ldw	r3,-8(fp)
 10820ec:	10c00115 	stw	r3,4(r2)
 10820f0:	e0bffd17 	ldw	r2,-12(fp)
 10820f4:	e0ffff17 	ldw	r3,-4(fp)
 10820f8:	10c00215 	stw	r3,8(r2)
 10820fc:	e0bffd17 	ldw	r2,-12(fp)
 1082100:	00c03204 	movi	r3,200
 1082104:	10c00315 	stw	r3,12(r2)
 1082108:	e0bffd17 	ldw	r2,-12(fp)
 108210c:	00c6d604 	movi	r3,7000
 1082110:	10c00415 	stw	r3,16(r2)
{
	// TODO Auto-generated constructor stub

//	m_mmap = new CMMap(CMMap::MAP_H2F_LW_BRIDGE);

	IOWR(m_BaseAddress, REG_TOTAL_DUR, CYCLE_WIDTH);
 1082114:	e0bffd17 	ldw	r2,-12(fp)
 1082118:	10800117 	ldw	r2,4(r2)
 108211c:	1007883a 	mov	r3,r2
 1082120:	0086d604 	movi	r2,7000
 1082124:	18800035 	stwio	r2,0(r3)
}
 1082128:	0001883a 	nop
 108212c:	e037883a 	mov	sp,fp
 1082130:	df000017 	ldw	fp,0(sp)
 1082134:	dec00104 	addi	sp,sp,4
 1082138:	f800283a 	ret

0108213c <_ZN8CDcMotorD1Ev>:

CDcMotor::~CDcMotor() {
 108213c:	defffd04 	addi	sp,sp,-12
 1082140:	dfc00215 	stw	ra,8(sp)
 1082144:	df000115 	stw	fp,4(sp)
 1082148:	df000104 	addi	fp,sp,4
 108214c:	e13fff15 	stw	r4,-4(fp)
 1082150:	008042b4 	movhi	r2,266
 1082154:	10b15b04 	addi	r2,r2,-14996
 1082158:	e0ffff17 	ldw	r3,-4(fp)
 108215c:	18800015 	stw	r2,0(r3)
	// TODO Auto-generated destructor stub
	//delete m_mmap;
}
 1082160:	0005883a 	mov	r2,zero
 1082164:	10000226 	beq	r2,zero,1082170 <_ZN8CDcMotorD1Ev+0x34>
 1082168:	e13fff17 	ldw	r4,-4(fp)
 108216c:	10863780 	call	1086378 <_ZdlPv>
 1082170:	e037883a 	mov	sp,fp
 1082174:	dfc00117 	ldw	ra,4(sp)
 1082178:	df000017 	ldw	fp,0(sp)
 108217c:	dec00204 	addi	sp,sp,8
 1082180:	f800283a 	ret

01082184 <_ZN8CDcMotorD0Ev>:
//	m_mmap = new CMMap(CMMap::MAP_H2F_LW_BRIDGE);

	IOWR(m_BaseAddress, REG_TOTAL_DUR, CYCLE_WIDTH);
}

CDcMotor::~CDcMotor() {
 1082184:	defffd04 	addi	sp,sp,-12
 1082188:	dfc00215 	stw	ra,8(sp)
 108218c:	df000115 	stw	fp,4(sp)
 1082190:	df000104 	addi	fp,sp,4
 1082194:	e13fff15 	stw	r4,-4(fp)
	// TODO Auto-generated destructor stub
	//delete m_mmap;
}
 1082198:	e13fff17 	ldw	r4,-4(fp)
 108219c:	108213c0 	call	108213c <_ZN8CDcMotorD1Ev>
 10821a0:	e13fff17 	ldw	r4,-4(fp)
 10821a4:	10863780 	call	1086378 <_ZdlPv>
 10821a8:	e037883a 	mov	sp,fp
 10821ac:	dfc00117 	ldw	ra,4(sp)
 10821b0:	df000017 	ldw	fp,0(sp)
 10821b4:	dec00204 	addi	sp,sp,8
 10821b8:	f800283a 	ret

010821bc <_ZN8CDcMotor12SetDirectionEb>:
/**************************************************************************
Function     :set motor turn direction
parameter    :
return value :
**************************************************************************/
void CDcMotor::SetDirection(bool bFordward){
 10821bc:	defffb04 	addi	sp,sp,-20
 10821c0:	df000415 	stw	fp,16(sp)
 10821c4:	df000404 	addi	fp,sp,16
 10821c8:	e13ffe15 	stw	r4,-8(fp)
 10821cc:	2805883a 	mov	r2,r5
 10821d0:	e0bfff05 	stb	r2,-4(fp)
	int Status,Control;
	Status = IORD(m_BaseAddress, REG_CTS);
 10821d4:	e0bffe17 	ldw	r2,-8(fp)
 10821d8:	10800117 	ldw	r2,4(r2)
 10821dc:	10800204 	addi	r2,r2,8
 10821e0:	10800037 	ldwio	r2,0(r2)
 10821e4:	e0bffd15 	stw	r2,-12(fp)
	if (bFordward)
 10821e8:	e0bfff03 	ldbu	r2,-4(fp)
 10821ec:	10000426 	beq	r2,zero,1082200 <_ZN8CDcMotor12SetDirectionEb+0x44>
		Control = Status | FORWARD_BIT;
 10821f0:	e0bffd17 	ldw	r2,-12(fp)
 10821f4:	10800094 	ori	r2,r2,2
 10821f8:	e0bffc15 	stw	r2,-16(fp)
 10821fc:	00000406 	br	1082210 <_ZN8CDcMotor12SetDirectionEb+0x54>
	else
		Control = Status & ~FORWARD_BIT;
 1082200:	e0fffd17 	ldw	r3,-12(fp)
 1082204:	00bfff44 	movi	r2,-3
 1082208:	1884703a 	and	r2,r3,r2
 108220c:	e0bffc15 	stw	r2,-16(fp)
	IOWR(m_BaseAddress, REG_CTS, Control);
 1082210:	e0bffe17 	ldw	r2,-8(fp)
 1082214:	10800117 	ldw	r2,4(r2)
 1082218:	10800204 	addi	r2,r2,8
 108221c:	1007883a 	mov	r3,r2
 1082220:	e0bffc17 	ldw	r2,-16(fp)
 1082224:	18800035 	stwio	r2,0(r3)
}
 1082228:	0001883a 	nop
 108222c:	e037883a 	mov	sp,fp
 1082230:	df000017 	ldw	fp,0(sp)
 1082234:	dec00104 	addi	sp,sp,4
 1082238:	f800283a 	ret

0108223c <_ZN8CDcMotor8SetSpeedEf>:
Function     :set motor PWM value
parameter    :
return value :
**************************************************************************/

void CDcMotor::SetSpeed(float fSpeed /* -100~100*/){
 108223c:	defff804 	addi	sp,sp,-32
 1082240:	dfc00715 	stw	ra,28(sp)
 1082244:	df000615 	stw	fp,24(sp)
 1082248:	dc800515 	stw	r18,20(sp)
 108224c:	dc400415 	stw	r17,16(sp)
 1082250:	dc000315 	stw	r16,12(sp)
 1082254:	df000604 	addi	fp,sp,24
 1082258:	e13ffb15 	stw	r4,-20(fp)
 108225c:	e17ffc15 	stw	r5,-16(fp)
	int SpeedParam = 0;
 1082260:	e03ffa15 	stw	zero,-24(fp)

	// bound speed
	if (fSpeed < -100.0)
 1082264:	0170b234 	movhi	r5,49864
 1082268:	e13ffc17 	ldw	r4,-16(fp)
 108226c:	1087e780 	call	1087e78 <__lesf2>
 1082270:	1000030e 	bge	r2,zero,1082280 <_ZN8CDcMotor8SetSpeedEf+0x44>
		fSpeed = -100;
 1082274:	00b0b234 	movhi	r2,49864
 1082278:	e0bffc15 	stw	r2,-16(fp)
 108227c:	00000606 	br	1082298 <_ZN8CDcMotor8SetSpeedEf+0x5c>
	else if (fSpeed > 100.0)
 1082280:	0150b234 	movhi	r5,17096
 1082284:	e13ffc17 	ldw	r4,-16(fp)
 1082288:	1087dbc0 	call	1087dbc <__gesf2>
 108228c:	0080020e 	bge	zero,r2,1082298 <_ZN8CDcMotor8SetSpeedEf+0x5c>
		fSpeed = 100.0;
 1082290:	0090b234 	movhi	r2,17096
 1082294:	e0bffc15 	stw	r2,-16(fp)
	//
	if (fSpeed != 0.0){
 1082298:	000b883a 	mov	r5,zero
 108229c:	e13ffc17 	ldw	r4,-16(fp)
 10822a0:	1087d440 	call	1087d44 <__eqsf2>
 10822a4:	10002d26 	beq	r2,zero,108235c <_ZN8CDcMotor8SetSpeedEf+0x120>
		SpeedParam = m_CycleWidthMini + (int)(fabs(fSpeed) * (float)(m_CycleWidthMaxi-m_CycleWidthMini) / 100.0);
 10822a8:	e0bffb17 	ldw	r2,-20(fp)
 10822ac:	14800317 	ldw	r18,12(r2)
 10822b0:	e0fffc17 	ldw	r3,-16(fp)
 10822b4:	00a00034 	movhi	r2,32768
 10822b8:	10bfffc4 	addi	r2,r2,-1
 10822bc:	1884703a 	and	r2,r3,r2
 10822c0:	1009883a 	mov	r4,r2
 10822c4:	108ae840 	call	108ae84 <__extendsfdf2>
 10822c8:	1021883a 	mov	r16,r2
 10822cc:	1823883a 	mov	r17,r3
 10822d0:	e0bffb17 	ldw	r2,-20(fp)
 10822d4:	10c00417 	ldw	r3,16(r2)
 10822d8:	e0bffb17 	ldw	r2,-20(fp)
 10822dc:	10800317 	ldw	r2,12(r2)
 10822e0:	1885c83a 	sub	r2,r3,r2
 10822e4:	1009883a 	mov	r4,r2
 10822e8:	10888900 	call	1088890 <__floatsisf>
 10822ec:	1007883a 	mov	r3,r2
 10822f0:	1809883a 	mov	r4,r3
 10822f4:	108ae840 	call	108ae84 <__extendsfdf2>
 10822f8:	1009883a 	mov	r4,r2
 10822fc:	180b883a 	mov	r5,r3
 1082300:	200d883a 	mov	r6,r4
 1082304:	280f883a 	mov	r7,r5
 1082308:	8009883a 	mov	r4,r16
 108230c:	880b883a 	mov	r5,r17
 1082310:	1089d140 	call	1089d14 <__muldf3>
 1082314:	1009883a 	mov	r4,r2
 1082318:	180b883a 	mov	r5,r3
 108231c:	2005883a 	mov	r2,r4
 1082320:	2807883a 	mov	r3,r5
 1082324:	000d883a 	mov	r6,zero
 1082328:	01d01674 	movhi	r7,16473
 108232c:	1009883a 	mov	r4,r2
 1082330:	180b883a 	mov	r5,r3
 1082334:	10893500 	call	1089350 <__divdf3>
 1082338:	1009883a 	mov	r4,r2
 108233c:	180b883a 	mov	r5,r3
 1082340:	2005883a 	mov	r2,r4
 1082344:	2807883a 	mov	r3,r5
 1082348:	1009883a 	mov	r4,r2
 108234c:	180b883a 	mov	r5,r3
 1082350:	108ad280 	call	108ad28 <__fixdfsi>
 1082354:	9085883a 	add	r2,r18,r2
 1082358:	e0bffa15 	stw	r2,-24(fp)
		//SpeedParam = (int)(fabs(fSpeed) * (float)(m_CycleWidthMaxi) / 100.0);
	}

	IOWR(m_BaseAddress, REG_HIGH_DUR, SpeedParam);
 108235c:	e0bffb17 	ldw	r2,-20(fp)
 1082360:	10800117 	ldw	r2,4(r2)
 1082364:	10800104 	addi	r2,r2,4
 1082368:	1007883a 	mov	r3,r2
 108236c:	e0bffa17 	ldw	r2,-24(fp)
 1082370:	18800035 	stwio	r2,0(r3)
	SetDirection((fSpeed >= 0.0)?true:false);
 1082374:	04000044 	movi	r16,1
 1082378:	000b883a 	mov	r5,zero
 108237c:	e13ffc17 	ldw	r4,-16(fp)
 1082380:	1087dbc0 	call	1087dbc <__gesf2>
 1082384:	1000010e 	bge	r2,zero,108238c <_ZN8CDcMotor8SetSpeedEf+0x150>
 1082388:	0021883a 	mov	r16,zero
 108238c:	80803fcc 	andi	r2,r16,255
 1082390:	100b883a 	mov	r5,r2
 1082394:	e13ffb17 	ldw	r4,-20(fp)
 1082398:	10821bc0 	call	10821bc <_ZN8CDcMotor12SetDirectionEb>
}
 108239c:	0001883a 	nop
 10823a0:	e6fffd04 	addi	sp,fp,-12
 10823a4:	dfc00417 	ldw	ra,16(sp)
 10823a8:	df000317 	ldw	fp,12(sp)
 10823ac:	dc800217 	ldw	r18,8(sp)
 10823b0:	dc400117 	ldw	r17,4(sp)
 10823b4:	dc000017 	ldw	r16,0(sp)
 10823b8:	dec00504 	addi	sp,sp,20
 10823bc:	f800283a 	ret

010823c0 <_ZN8CDcMotor4StopEv>:
Function     :stop motor normal
parameter    :
return value :
**************************************************************************/

void CDcMotor::Stop(void){
 10823c0:	defffc04 	addi	sp,sp,-16
 10823c4:	df000315 	stw	fp,12(sp)
 10823c8:	df000304 	addi	fp,sp,12
 10823cc:	e13fff15 	stw	r4,-4(fp)
	int Status,Control;
	Status = IORD(m_BaseAddress, REG_CTS);
 10823d0:	e0bfff17 	ldw	r2,-4(fp)
 10823d4:	10800117 	ldw	r2,4(r2)
 10823d8:	10800204 	addi	r2,r2,8
 10823dc:	10800037 	ldwio	r2,0(r2)
 10823e0:	e0bffd15 	stw	r2,-12(fp)
	Control = Status & (~RUN_BIT);
 10823e4:	e0fffd17 	ldw	r3,-12(fp)
 10823e8:	00bfff84 	movi	r2,-2
 10823ec:	1884703a 	and	r2,r3,r2
 10823f0:	e0bffe15 	stw	r2,-8(fp)
	IOWR(m_BaseAddress, REG_CTS, Control);
 10823f4:	e0bfff17 	ldw	r2,-4(fp)
 10823f8:	10800117 	ldw	r2,4(r2)
 10823fc:	10800204 	addi	r2,r2,8
 1082400:	1007883a 	mov	r3,r2
 1082404:	e0bffe17 	ldw	r2,-8(fp)
 1082408:	18800035 	stwio	r2,0(r3)
	IOWR(m_MeasureAddress, measure_cnt_enable_reg, 0x00);
 108240c:	e0bfff17 	ldw	r2,-4(fp)
 1082410:	10800217 	ldw	r2,8(r2)
 1082414:	10800104 	addi	r2,r2,4
 1082418:	0007883a 	mov	r3,zero
 108241c:	10c00035 	stwio	r3,0(r2)
}
 1082420:	0001883a 	nop
 1082424:	e037883a 	mov	sp,fp
 1082428:	df000017 	ldw	fp,0(sp)
 108242c:	dec00104 	addi	sp,sp,4
 1082430:	f800283a 	ret

01082434 <_ZN8CDcMotor9Stop_fastEv>:
/**************************************************************************
Function     :stop motor fastly
parameter    :
return value :
**************************************************************************/
void CDcMotor::Stop_fast(void){
 1082434:	defffe04 	addi	sp,sp,-8
 1082438:	df000115 	stw	fp,4(sp)
 108243c:	df000104 	addi	fp,sp,4
 1082440:	e13fff15 	stw	r4,-4(fp)
	IOWR(m_BaseAddress, REG_CTS, 0x00);
 1082444:	e0bfff17 	ldw	r2,-4(fp)
 1082448:	10800117 	ldw	r2,4(r2)
 108244c:	10800204 	addi	r2,r2,8
 1082450:	0007883a 	mov	r3,zero
 1082454:	10c00035 	stwio	r3,0(r2)
	IOWR(m_MeasureAddress, measure_cnt_enable_reg, 0x00);
 1082458:	e0bfff17 	ldw	r2,-4(fp)
 108245c:	10800217 	ldw	r2,8(r2)
 1082460:	10800104 	addi	r2,r2,4
 1082464:	0007883a 	mov	r3,zero
 1082468:	10c00035 	stwio	r3,0(r2)
}
 108246c:	0001883a 	nop
 1082470:	e037883a 	mov	sp,fp
 1082474:	df000017 	ldw	fp,0(sp)
 1082478:	dec00104 	addi	sp,sp,4
 108247c:	f800283a 	ret

01082480 <_ZN8CDcMotor5StartEv>:
/**************************************************************************
Function     :start motor
parameter    :
return value :
**************************************************************************/
void CDcMotor::Start(void){
 1082480:	defffc04 	addi	sp,sp,-16
 1082484:	df000315 	stw	fp,12(sp)
 1082488:	df000304 	addi	fp,sp,12
 108248c:	e13fff15 	stw	r4,-4(fp)
	int Status,Control;
	Status = IORD(m_BaseAddress, REG_CTS);
 1082490:	e0bfff17 	ldw	r2,-4(fp)
 1082494:	10800117 	ldw	r2,4(r2)
 1082498:	10800204 	addi	r2,r2,8
 108249c:	10800037 	ldwio	r2,0(r2)
 10824a0:	e0bffd15 	stw	r2,-12(fp)
	Control = Status | RUN_BIT;
 10824a4:	e0bffd17 	ldw	r2,-12(fp)
 10824a8:	10800054 	ori	r2,r2,1
 10824ac:	e0bffe15 	stw	r2,-8(fp)
	IOWR(m_BaseAddress, REG_CTS, Control);
 10824b0:	e0bfff17 	ldw	r2,-4(fp)
 10824b4:	10800117 	ldw	r2,4(r2)
 10824b8:	10800204 	addi	r2,r2,8
 10824bc:	1007883a 	mov	r3,r2
 10824c0:	e0bffe17 	ldw	r2,-8(fp)
 10824c4:	18800035 	stwio	r2,0(r3)
	IOWR(m_MeasureAddress, measure_cnt_enable_reg, 0x01);
 10824c8:	e0bfff17 	ldw	r2,-4(fp)
 10824cc:	10800217 	ldw	r2,8(r2)
 10824d0:	10800104 	addi	r2,r2,4
 10824d4:	1007883a 	mov	r3,r2
 10824d8:	00800044 	movi	r2,1
 10824dc:	18800035 	stwio	r2,0(r3)
}
 10824e0:	0001883a 	nop
 10824e4:	e037883a 	mov	sp,fp
 10824e8:	df000017 	ldw	fp,0(sp)
 10824ec:	dec00104 	addi	sp,sp,4
 10824f0:	f800283a 	ret

010824f4 <_ZN8CDcMotor8GetCountEv>:
Function     :fetch the motor speed count
parameter    :
return value :
**************************************************************************/

signed short CDcMotor::GetCount(void){
 10824f4:	defffd04 	addi	sp,sp,-12
 10824f8:	df000215 	stw	fp,8(sp)
 10824fc:	df000204 	addi	fp,sp,8
 1082500:	e13fff15 	stw	r4,-4(fp)
	 signed short count;
	 count=IORD(m_MeasureAddress, measure_cnt_read_reg);
 1082504:	e0bfff17 	ldw	r2,-4(fp)
 1082508:	10800217 	ldw	r2,8(r2)
 108250c:	10800037 	ldwio	r2,0(r2)
 1082510:	e0bffe0d 	sth	r2,-8(fp)
	 IOWR(m_MeasureAddress, measure_cnt_write_reg, 0x8000);
 1082514:	e0bfff17 	ldw	r2,-4(fp)
 1082518:	10800217 	ldw	r2,8(r2)
 108251c:	10800204 	addi	r2,r2,8
 1082520:	1007883a 	mov	r3,r2
 1082524:	00a00014 	movui	r2,32768
 1082528:	18800035 	stwio	r2,0(r3)
	 count=count-0x8000;
 108252c:	e0bffe0b 	ldhu	r2,-8(fp)
 1082530:	10a00004 	addi	r2,r2,-32768
 1082534:	e0bffe0d 	sth	r2,-8(fp)
	 return count;
 1082538:	e0bffe0b 	ldhu	r2,-8(fp)
}
 108253c:	e037883a 	mov	sp,fp
 1082540:	df000017 	ldw	fp,0(sp)
 1082544:	dec00104 	addi	sp,sp,4
 1082548:	f800283a 	ret

0108254c <_ZN6CQueueC1Ei>:
 *      Author: User
 */

#include "Queue.h"

CQueue::CQueue(const int nQueueSize):
 108254c:	defffc04 	addi	sp,sp,-16
 1082550:	dfc00315 	stw	ra,12(sp)
 1082554:	df000215 	stw	fp,8(sp)
 1082558:	df000204 	addi	fp,sp,8
 108255c:	e13ffe15 	stw	r4,-8(fp)
 1082560:	e17fff15 	stw	r5,-4(fp)
	m_nNum(nQueueSize)
 1082564:	008042b4 	movhi	r2,266
 1082568:	10b16204 	addi	r2,r2,-14968
 108256c:	e0fffe17 	ldw	r3,-8(fp)
 1082570:	18800015 	stw	r2,0(r3)
 1082574:	e0ffff17 	ldw	r3,-4(fp)
 1082578:	e0bffe17 	ldw	r2,-8(fp)
 108257c:	10c00115 	stw	r3,4(r2)
{
	// TODO Auto-generated constructor stub
	m_szQueue = (alt_u32 *)malloc(nQueueSize*sizeof(alt_u32));
 1082580:	e0bfff17 	ldw	r2,-4(fp)
 1082584:	1085883a 	add	r2,r2,r2
 1082588:	1085883a 	add	r2,r2,r2
 108258c:	1009883a 	mov	r4,r2
 1082590:	108b6f00 	call	108b6f0 <malloc>
 1082594:	1007883a 	mov	r3,r2
 1082598:	e0bffe17 	ldw	r2,-8(fp)
 108259c:	10c00415 	stw	r3,16(r2)
	Clear();
 10825a0:	e13ffe17 	ldw	r4,-8(fp)
 10825a4:	10828200 	call	1082820 <_ZN6CQueue5ClearEv>

}
 10825a8:	0001883a 	nop
 10825ac:	e037883a 	mov	sp,fp
 10825b0:	dfc00117 	ldw	ra,4(sp)
 10825b4:	df000017 	ldw	fp,0(sp)
 10825b8:	dec00204 	addi	sp,sp,8
 10825bc:	f800283a 	ret

010825c0 <_ZN6CQueueD1Ev>:

CQueue::~CQueue() {
 10825c0:	defffd04 	addi	sp,sp,-12
 10825c4:	dfc00215 	stw	ra,8(sp)
 10825c8:	df000115 	stw	fp,4(sp)
 10825cc:	df000104 	addi	fp,sp,4
 10825d0:	e13fff15 	stw	r4,-4(fp)
 10825d4:	008042b4 	movhi	r2,266
 10825d8:	10b16204 	addi	r2,r2,-14968
 10825dc:	e0ffff17 	ldw	r3,-4(fp)
 10825e0:	18800015 	stw	r2,0(r3)
	// TODO Auto-generated destructor stub
	free(m_szQueue);
 10825e4:	e0bfff17 	ldw	r2,-4(fp)
 10825e8:	10800417 	ldw	r2,16(r2)
 10825ec:	1009883a 	mov	r4,r2
 10825f0:	108b7040 	call	108b704 <free>
}
 10825f4:	0005883a 	mov	r2,zero
 10825f8:	10000226 	beq	r2,zero,1082604 <_ZN6CQueueD1Ev+0x44>
 10825fc:	e13fff17 	ldw	r4,-4(fp)
 1082600:	10863780 	call	1086378 <_ZdlPv>
 1082604:	e037883a 	mov	sp,fp
 1082608:	dfc00117 	ldw	ra,4(sp)
 108260c:	df000017 	ldw	fp,0(sp)
 1082610:	dec00204 	addi	sp,sp,8
 1082614:	f800283a 	ret

01082618 <_ZN6CQueueD0Ev>:
	m_szQueue = (alt_u32 *)malloc(nQueueSize*sizeof(alt_u32));
	Clear();

}

CQueue::~CQueue() {
 1082618:	defffd04 	addi	sp,sp,-12
 108261c:	dfc00215 	stw	ra,8(sp)
 1082620:	df000115 	stw	fp,4(sp)
 1082624:	df000104 	addi	fp,sp,4
 1082628:	e13fff15 	stw	r4,-4(fp)
	// TODO Auto-generated destructor stub
	free(m_szQueue);
}
 108262c:	e13fff17 	ldw	r4,-4(fp)
 1082630:	10825c00 	call	10825c0 <_ZN6CQueueD1Ev>
 1082634:	e13fff17 	ldw	r4,-4(fp)
 1082638:	10863780 	call	1086378 <_ZdlPv>
 108263c:	e037883a 	mov	sp,fp
 1082640:	dfc00117 	ldw	ra,4(sp)
 1082644:	df000017 	ldw	fp,0(sp)
 1082648:	dec00204 	addi	sp,sp,8
 108264c:	f800283a 	ret

01082650 <_ZN6CQueue7IsEmptyEv>:


bool CQueue::IsEmpty(void){
 1082650:	defffe04 	addi	sp,sp,-8
 1082654:	df000115 	stw	fp,4(sp)
 1082658:	df000104 	addi	fp,sp,4
 108265c:	e13fff15 	stw	r4,-4(fp)
    if (m_nFront == m_nRear)
 1082660:	e0bfff17 	ldw	r2,-4(fp)
 1082664:	10c00217 	ldw	r3,8(r2)
 1082668:	e0bfff17 	ldw	r2,-4(fp)
 108266c:	10800317 	ldw	r2,12(r2)
 1082670:	1880021e 	bne	r3,r2,108267c <_ZN6CQueue7IsEmptyEv+0x2c>
        return true;
 1082674:	00800044 	movi	r2,1
 1082678:	00000106 	br	1082680 <_ZN6CQueue7IsEmptyEv+0x30>
    return false;
 108267c:	0005883a 	mov	r2,zero
}
 1082680:	e037883a 	mov	sp,fp
 1082684:	df000017 	ldw	fp,0(sp)
 1082688:	dec00104 	addi	sp,sp,4
 108268c:	f800283a 	ret

01082690 <_ZN6CQueue6IsFullEv>:

bool CQueue::IsFull(void){
 1082690:	defffd04 	addi	sp,sp,-12
 1082694:	dfc00215 	stw	ra,8(sp)
 1082698:	df000115 	stw	fp,4(sp)
 108269c:	df000104 	addi	fp,sp,4
 10826a0:	e13fff15 	stw	r4,-4(fp)
    if (((m_nFront+1)%m_nNum) == m_nRear)
 10826a4:	e0bfff17 	ldw	r2,-4(fp)
 10826a8:	10800217 	ldw	r2,8(r2)
 10826ac:	10c00044 	addi	r3,r2,1
 10826b0:	e0bfff17 	ldw	r2,-4(fp)
 10826b4:	10800117 	ldw	r2,4(r2)
 10826b8:	100b883a 	mov	r5,r2
 10826bc:	1809883a 	mov	r4,r3
 10826c0:	10873e40 	call	10873e4 <__umodsi3>
 10826c4:	1007883a 	mov	r3,r2
 10826c8:	e0bfff17 	ldw	r2,-4(fp)
 10826cc:	10800317 	ldw	r2,12(r2)
 10826d0:	1880021e 	bne	r3,r2,10826dc <_ZN6CQueue6IsFullEv+0x4c>
        return true;
 10826d4:	00800044 	movi	r2,1
 10826d8:	00000106 	br	10826e0 <_ZN6CQueue6IsFullEv+0x50>
    return false;
 10826dc:	0005883a 	mov	r2,zero
}
 10826e0:	e037883a 	mov	sp,fp
 10826e4:	dfc00117 	ldw	ra,4(sp)
 10826e8:	df000017 	ldw	fp,0(sp)
 10826ec:	dec00204 	addi	sp,sp,8
 10826f0:	f800283a 	ret

010826f4 <_ZN6CQueue4PushEm>:

bool CQueue::Push(alt_u32 data32){
 10826f4:	defffc04 	addi	sp,sp,-16
 10826f8:	dfc00315 	stw	ra,12(sp)
 10826fc:	df000215 	stw	fp,8(sp)
 1082700:	df000204 	addi	fp,sp,8
 1082704:	e13ffe15 	stw	r4,-8(fp)
 1082708:	e17fff15 	stw	r5,-4(fp)
    if (IsFull())
 108270c:	e13ffe17 	ldw	r4,-8(fp)
 1082710:	10826900 	call	1082690 <_ZN6CQueue6IsFullEv>
 1082714:	10803fcc 	andi	r2,r2,255
 1082718:	10000226 	beq	r2,zero,1082724 <_ZN6CQueue4PushEm+0x30>
        return false;
 108271c:	0005883a 	mov	r2,zero
 1082720:	00001506 	br	1082778 <_ZN6CQueue4PushEm+0x84>
    m_szQueue[m_nFront] = data32;
 1082724:	e0bffe17 	ldw	r2,-8(fp)
 1082728:	10c00417 	ldw	r3,16(r2)
 108272c:	e0bffe17 	ldw	r2,-8(fp)
 1082730:	10800217 	ldw	r2,8(r2)
 1082734:	1085883a 	add	r2,r2,r2
 1082738:	1085883a 	add	r2,r2,r2
 108273c:	1885883a 	add	r2,r3,r2
 1082740:	e0ffff17 	ldw	r3,-4(fp)
 1082744:	10c00015 	stw	r3,0(r2)
    m_nFront = (m_nFront+1)%m_nNum;
 1082748:	e0bffe17 	ldw	r2,-8(fp)
 108274c:	10800217 	ldw	r2,8(r2)
 1082750:	10c00044 	addi	r3,r2,1
 1082754:	e0bffe17 	ldw	r2,-8(fp)
 1082758:	10800117 	ldw	r2,4(r2)
 108275c:	100b883a 	mov	r5,r2
 1082760:	1809883a 	mov	r4,r3
 1082764:	10873e40 	call	10873e4 <__umodsi3>
 1082768:	1007883a 	mov	r3,r2
 108276c:	e0bffe17 	ldw	r2,-8(fp)
 1082770:	10c00215 	stw	r3,8(r2)
    return true;
 1082774:	00800044 	movi	r2,1
}
 1082778:	e037883a 	mov	sp,fp
 108277c:	dfc00117 	ldw	ra,4(sp)
 1082780:	df000017 	ldw	fp,0(sp)
 1082784:	dec00204 	addi	sp,sp,8
 1082788:	f800283a 	ret

0108278c <_ZN6CQueue3PopEv>:

alt_u32 CQueue::Pop(void){
 108278c:	defffc04 	addi	sp,sp,-16
 1082790:	dfc00315 	stw	ra,12(sp)
 1082794:	df000215 	stw	fp,8(sp)
 1082798:	df000204 	addi	fp,sp,8
 108279c:	e13fff15 	stw	r4,-4(fp)
    alt_u32 data32;
    if (IsEmpty())
 10827a0:	e13fff17 	ldw	r4,-4(fp)
 10827a4:	10826500 	call	1082650 <_ZN6CQueue7IsEmptyEv>
 10827a8:	10803fcc 	andi	r2,r2,255
 10827ac:	10000226 	beq	r2,zero,10827b8 <_ZN6CQueue3PopEv+0x2c>
        return 0;
 10827b0:	0005883a 	mov	r2,zero
 10827b4:	00001506 	br	108280c <_ZN6CQueue3PopEv+0x80>
    data32 = m_szQueue[m_nRear];
 10827b8:	e0bfff17 	ldw	r2,-4(fp)
 10827bc:	10c00417 	ldw	r3,16(r2)
 10827c0:	e0bfff17 	ldw	r2,-4(fp)
 10827c4:	10800317 	ldw	r2,12(r2)
 10827c8:	1085883a 	add	r2,r2,r2
 10827cc:	1085883a 	add	r2,r2,r2
 10827d0:	1885883a 	add	r2,r3,r2
 10827d4:	10800017 	ldw	r2,0(r2)
 10827d8:	e0bffe15 	stw	r2,-8(fp)
    m_nRear = (m_nRear+1)%m_nNum;
 10827dc:	e0bfff17 	ldw	r2,-4(fp)
 10827e0:	10800317 	ldw	r2,12(r2)
 10827e4:	10c00044 	addi	r3,r2,1
 10827e8:	e0bfff17 	ldw	r2,-4(fp)
 10827ec:	10800117 	ldw	r2,4(r2)
 10827f0:	100b883a 	mov	r5,r2
 10827f4:	1809883a 	mov	r4,r3
 10827f8:	10873e40 	call	10873e4 <__umodsi3>
 10827fc:	1007883a 	mov	r3,r2
 1082800:	e0bfff17 	ldw	r2,-4(fp)
 1082804:	10c00315 	stw	r3,12(r2)
    return data32;
 1082808:	e0bffe17 	ldw	r2,-8(fp)
}
 108280c:	e037883a 	mov	sp,fp
 1082810:	dfc00117 	ldw	ra,4(sp)
 1082814:	df000017 	ldw	fp,0(sp)
 1082818:	dec00204 	addi	sp,sp,8
 108281c:	f800283a 	ret

01082820 <_ZN6CQueue5ClearEv>:

void CQueue::Clear(void){
 1082820:	defffe04 	addi	sp,sp,-8
 1082824:	df000115 	stw	fp,4(sp)
 1082828:	df000104 	addi	fp,sp,4
 108282c:	e13fff15 	stw	r4,-4(fp)
	m_nFront = 0;
 1082830:	e0bfff17 	ldw	r2,-4(fp)
 1082834:	10000215 	stw	zero,8(r2)
    m_nRear = 0;
 1082838:	e0bfff17 	ldw	r2,-4(fp)
 108283c:	10000315 	stw	zero,12(r2)
}
 1082840:	0001883a 	nop
 1082844:	e037883a 	mov	sp,fp
 1082848:	df000017 	ldw	fp,0(sp)
 108284c:	dec00104 	addi	sp,sp,4
 1082850:	f800283a 	ret

01082854 <_ZN6KalmanC1Ev>:
/**************************************************************************
Function     :kalman parameters
parameter    :
return value :
**************************************************************************/
Kalman::Kalman()
 1082854:	defffe04 	addi	sp,sp,-8
 1082858:	df000115 	stw	fp,4(sp)
 108285c:	df000104 	addi	fp,sp,4
 1082860:	e13fff15 	stw	r4,-4(fp)
{
	 Q_angle=0.001;
 1082864:	e0ffff17 	ldw	r3,-4(fp)
 1082868:	008ea0f4 	movhi	r2,14979
 108286c:	10849bc4 	addi	r2,r2,4719
 1082870:	18800015 	stw	r2,0(r3)
	 Q_gyro=0.003;
 1082874:	e0ffff17 	ldw	r3,-4(fp)
 1082878:	008ed174 	movhi	r2,15173
 108287c:	10a6e984 	addi	r2,r2,-25690
 1082880:	18800115 	stw	r2,4(r3)
	 R_measure=0.5;
 1082884:	e0bfff17 	ldw	r2,-4(fp)
 1082888:	00cfc034 	movhi	r3,16128
 108288c:	10c00215 	stw	r3,8(r2)

	 dt=0.01;
 1082890:	e0ffff17 	ldw	r3,-4(fp)
 1082894:	008f0934 	movhi	r2,15396
 1082898:	10b5c284 	addi	r2,r2,-10486
 108289c:	18800315 	stw	r2,12(r3)
	 angle=0;
 10828a0:	e0bfff17 	ldw	r2,-4(fp)
 10828a4:	10000415 	stw	zero,16(r2)
	 Q_bias=0;
 10828a8:	e0bfff17 	ldw	r2,-4(fp)
 10828ac:	10000515 	stw	zero,20(r2)
	// PP[2][2]={{1.0,0},{0,1.0}};
	 PP[0][0]=1;
 10828b0:	e0bfff17 	ldw	r2,-4(fp)
 10828b4:	00cfe034 	movhi	r3,16256
 10828b8:	10c00615 	stw	r3,24(r2)
	 PP[0][1]=0;
 10828bc:	e0bfff17 	ldw	r2,-4(fp)
 10828c0:	10000715 	stw	zero,28(r2)
	 PP[1][0]=0;
 10828c4:	e0bfff17 	ldw	r2,-4(fp)
 10828c8:	10000815 	stw	zero,32(r2)
	 PP[1][1]=1;
 10828cc:	e0bfff17 	ldw	r2,-4(fp)
 10828d0:	00cfe034 	movhi	r3,16256
 10828d4:	10c00915 	stw	r3,36(r2)
}
 10828d8:	0001883a 	nop
 10828dc:	e037883a 	mov	sp,fp
 10828e0:	df000017 	ldw	fp,0(sp)
 10828e4:	dec00104 	addi	sp,sp,4
 10828e8:	f800283a 	ret

010828ec <_ZN6Kalman8getAngleEff>:
Function     :angle kalman filter
parameter    :
return value :angel after filter
**************************************************************************/
float Kalman::getAngle(float X_angle,float Gyro )
{
 10828ec:	deffed04 	addi	sp,sp,-76
 10828f0:	dfc01215 	stw	ra,72(sp)
 10828f4:	df001115 	stw	fp,68(sp)
 10828f8:	dc001015 	stw	r16,64(sp)
 10828fc:	df001104 	addi	fp,sp,68
 1082900:	e13ffc15 	stw	r4,-16(fp)
 1082904:	e17ffd15 	stw	r5,-12(fp)
 1082908:	e1bffe15 	stw	r6,-8(fp)
	float Pdot[4] ={0,0,0,0};
 108290c:	e03ff815 	stw	zero,-32(fp)
 1082910:	e03ff915 	stw	zero,-28(fp)
 1082914:	e03ffa15 	stw	zero,-24(fp)
 1082918:	e03ffb15 	stw	zero,-20(fp)
	float  PCt_0,PCt_1;
	char   C_0 = 1;
 108291c:	00800044 	movi	r2,1
 1082920:	e0bfef05 	stb	r2,-68(fp)
	float  Angle_err;
	float  t_0,t_1;
	float  K_0,K_1;
	float  E;
	angle+=(Gyro-Q_bias)*dt;
 1082924:	e0bffc17 	ldw	r2,-16(fp)
 1082928:	14000417 	ldw	r16,16(r2)
 108292c:	e0bffc17 	ldw	r2,-16(fp)
 1082930:	10c00517 	ldw	r3,20(r2)
 1082934:	180b883a 	mov	r5,r3
 1082938:	e13ffe17 	ldw	r4,-8(fp)
 108293c:	108833c0 	call	108833c <__subsf3>
 1082940:	1007883a 	mov	r3,r2
 1082944:	1809883a 	mov	r4,r3
 1082948:	e0bffc17 	ldw	r2,-16(fp)
 108294c:	10c00317 	ldw	r3,12(r2)
 1082950:	180b883a 	mov	r5,r3
 1082954:	1087f400 	call	1087f40 <__mulsf3>
 1082958:	1007883a 	mov	r3,r2
 108295c:	1805883a 	mov	r2,r3
 1082960:	100b883a 	mov	r5,r2
 1082964:	8009883a 	mov	r4,r16
 1082968:	108743c0 	call	108743c <__addsf3>
 108296c:	1009883a 	mov	r4,r2
 1082970:	2007883a 	mov	r3,r4
 1082974:	e0bffc17 	ldw	r2,-16(fp)
 1082978:	10c00415 	stw	r3,16(r2)
	Pdot[0]=Q_angle - PP[0][1] - PP[1][0];
 108297c:	e0bffc17 	ldw	r2,-16(fp)
 1082980:	10c00017 	ldw	r3,0(r2)
 1082984:	e0bffc17 	ldw	r2,-16(fp)
 1082988:	11000717 	ldw	r4,28(r2)
 108298c:	200b883a 	mov	r5,r4
 1082990:	1809883a 	mov	r4,r3
 1082994:	108833c0 	call	108833c <__subsf3>
 1082998:	1007883a 	mov	r3,r2
 108299c:	1809883a 	mov	r4,r3
 10829a0:	e0bffc17 	ldw	r2,-16(fp)
 10829a4:	10c00817 	ldw	r3,32(r2)
 10829a8:	180b883a 	mov	r5,r3
 10829ac:	108833c0 	call	108833c <__subsf3>
 10829b0:	1007883a 	mov	r3,r2
 10829b4:	1805883a 	mov	r2,r3
 10829b8:	e0bff815 	stw	r2,-32(fp)
	Pdot[1]=-PP[1][1];
 10829bc:	e0fffc17 	ldw	r3,-16(fp)
 10829c0:	18800917 	ldw	r2,36(r3)
 10829c4:	10a0003c 	xorhi	r2,r2,32768
 10829c8:	e0bff915 	stw	r2,-28(fp)
	Pdot[2]=-PP[1][1];
 10829cc:	e0fffc17 	ldw	r3,-16(fp)
 10829d0:	18800917 	ldw	r2,36(r3)
 10829d4:	10a0003c 	xorhi	r2,r2,32768
 10829d8:	e0bffa15 	stw	r2,-24(fp)
	Pdot[3]=Q_gyro;
 10829dc:	e0fffc17 	ldw	r3,-16(fp)
 10829e0:	18800117 	ldw	r2,4(r3)
 10829e4:	e0bffb15 	stw	r2,-20(fp)
	PP[0][0] += Pdot[0] * dt;
 10829e8:	e0bffc17 	ldw	r2,-16(fp)
 10829ec:	14000617 	ldw	r16,24(r2)
 10829f0:	e0fff817 	ldw	r3,-32(fp)
 10829f4:	e0bffc17 	ldw	r2,-16(fp)
 10829f8:	11000317 	ldw	r4,12(r2)
 10829fc:	200b883a 	mov	r5,r4
 1082a00:	1809883a 	mov	r4,r3
 1082a04:	1087f400 	call	1087f40 <__mulsf3>
 1082a08:	1007883a 	mov	r3,r2
 1082a0c:	1805883a 	mov	r2,r3
 1082a10:	100b883a 	mov	r5,r2
 1082a14:	8009883a 	mov	r4,r16
 1082a18:	108743c0 	call	108743c <__addsf3>
 1082a1c:	1009883a 	mov	r4,r2
 1082a20:	2007883a 	mov	r3,r4
 1082a24:	e0bffc17 	ldw	r2,-16(fp)
 1082a28:	10c00615 	stw	r3,24(r2)
	PP[0][1] += Pdot[1] * dt;
 1082a2c:	e0bffc17 	ldw	r2,-16(fp)
 1082a30:	14000717 	ldw	r16,28(r2)
 1082a34:	e0fff917 	ldw	r3,-28(fp)
 1082a38:	e0bffc17 	ldw	r2,-16(fp)
 1082a3c:	11000317 	ldw	r4,12(r2)
 1082a40:	200b883a 	mov	r5,r4
 1082a44:	1809883a 	mov	r4,r3
 1082a48:	1087f400 	call	1087f40 <__mulsf3>
 1082a4c:	1007883a 	mov	r3,r2
 1082a50:	1805883a 	mov	r2,r3
 1082a54:	100b883a 	mov	r5,r2
 1082a58:	8009883a 	mov	r4,r16
 1082a5c:	108743c0 	call	108743c <__addsf3>
 1082a60:	1009883a 	mov	r4,r2
 1082a64:	2007883a 	mov	r3,r4
 1082a68:	e0bffc17 	ldw	r2,-16(fp)
 1082a6c:	10c00715 	stw	r3,28(r2)
	PP[1][0] += Pdot[2] * dt;
 1082a70:	e0bffc17 	ldw	r2,-16(fp)
 1082a74:	14000817 	ldw	r16,32(r2)
 1082a78:	e0fffa17 	ldw	r3,-24(fp)
 1082a7c:	e0bffc17 	ldw	r2,-16(fp)
 1082a80:	11000317 	ldw	r4,12(r2)
 1082a84:	200b883a 	mov	r5,r4
 1082a88:	1809883a 	mov	r4,r3
 1082a8c:	1087f400 	call	1087f40 <__mulsf3>
 1082a90:	1007883a 	mov	r3,r2
 1082a94:	1805883a 	mov	r2,r3
 1082a98:	100b883a 	mov	r5,r2
 1082a9c:	8009883a 	mov	r4,r16
 1082aa0:	108743c0 	call	108743c <__addsf3>
 1082aa4:	1009883a 	mov	r4,r2
 1082aa8:	2007883a 	mov	r3,r4
 1082aac:	e0bffc17 	ldw	r2,-16(fp)
 1082ab0:	10c00815 	stw	r3,32(r2)
	PP[1][1] += Pdot[3] * dt;
 1082ab4:	e0bffc17 	ldw	r2,-16(fp)
 1082ab8:	14000917 	ldw	r16,36(r2)
 1082abc:	e0fffb17 	ldw	r3,-20(fp)
 1082ac0:	e0bffc17 	ldw	r2,-16(fp)
 1082ac4:	11000317 	ldw	r4,12(r2)
 1082ac8:	200b883a 	mov	r5,r4
 1082acc:	1809883a 	mov	r4,r3
 1082ad0:	1087f400 	call	1087f40 <__mulsf3>
 1082ad4:	1007883a 	mov	r3,r2
 1082ad8:	1805883a 	mov	r2,r3
 1082adc:	100b883a 	mov	r5,r2
 1082ae0:	8009883a 	mov	r4,r16
 1082ae4:	108743c0 	call	108743c <__addsf3>
 1082ae8:	1009883a 	mov	r4,r2
 1082aec:	2007883a 	mov	r3,r4
 1082af0:	e0bffc17 	ldw	r2,-16(fp)
 1082af4:	10c00915 	stw	r3,36(r2)
	Angle_err = X_angle - angle;
 1082af8:	e0bffc17 	ldw	r2,-16(fp)
 1082afc:	10c00417 	ldw	r3,16(r2)
 1082b00:	180b883a 	mov	r5,r3
 1082b04:	e13ffd17 	ldw	r4,-12(fp)
 1082b08:	108833c0 	call	108833c <__subsf3>
 1082b0c:	1007883a 	mov	r3,r2
 1082b10:	e0fff015 	stw	r3,-64(fp)

	PCt_0 = C_0 * PP[0][0];
 1082b14:	e0bfef07 	ldb	r2,-68(fp)
 1082b18:	1009883a 	mov	r4,r2
 1082b1c:	10888900 	call	1088890 <__floatsisf>
 1082b20:	1009883a 	mov	r4,r2
 1082b24:	e0bffc17 	ldw	r2,-16(fp)
 1082b28:	10c00617 	ldw	r3,24(r2)
 1082b2c:	180b883a 	mov	r5,r3
 1082b30:	1087f400 	call	1087f40 <__mulsf3>
 1082b34:	1007883a 	mov	r3,r2
 1082b38:	e0fff115 	stw	r3,-60(fp)
	PCt_1 = C_0 * PP[1][0];
 1082b3c:	e0bfef07 	ldb	r2,-68(fp)
 1082b40:	1009883a 	mov	r4,r2
 1082b44:	10888900 	call	1088890 <__floatsisf>
 1082b48:	1009883a 	mov	r4,r2
 1082b4c:	e0bffc17 	ldw	r2,-16(fp)
 1082b50:	10c00817 	ldw	r3,32(r2)
 1082b54:	180b883a 	mov	r5,r3
 1082b58:	1087f400 	call	1087f40 <__mulsf3>
 1082b5c:	1007883a 	mov	r3,r2
 1082b60:	e0fff215 	stw	r3,-56(fp)

	E = R_measure + C_0 * PCt_0;
 1082b64:	e0bffc17 	ldw	r2,-16(fp)
 1082b68:	14000217 	ldw	r16,8(r2)
 1082b6c:	e0bfef07 	ldb	r2,-68(fp)
 1082b70:	1009883a 	mov	r4,r2
 1082b74:	10888900 	call	1088890 <__floatsisf>
 1082b78:	1007883a 	mov	r3,r2
 1082b7c:	e17ff117 	ldw	r5,-60(fp)
 1082b80:	1809883a 	mov	r4,r3
 1082b84:	1087f400 	call	1087f40 <__mulsf3>
 1082b88:	1007883a 	mov	r3,r2
 1082b8c:	1805883a 	mov	r2,r3
 1082b90:	100b883a 	mov	r5,r2
 1082b94:	8009883a 	mov	r4,r16
 1082b98:	108743c0 	call	108743c <__addsf3>
 1082b9c:	1007883a 	mov	r3,r2
 1082ba0:	e0fff315 	stw	r3,-52(fp)

	K_0 = PCt_0 / E;
 1082ba4:	e17ff317 	ldw	r5,-52(fp)
 1082ba8:	e13ff117 	ldw	r4,-60(fp)
 1082bac:	10879040 	call	1087904 <__divsf3>
 1082bb0:	1007883a 	mov	r3,r2
 1082bb4:	e0fff415 	stw	r3,-48(fp)
	K_1 = PCt_1 / E;
 1082bb8:	e17ff317 	ldw	r5,-52(fp)
 1082bbc:	e13ff217 	ldw	r4,-56(fp)
 1082bc0:	10879040 	call	1087904 <__divsf3>
 1082bc4:	1007883a 	mov	r3,r2
 1082bc8:	e0fff515 	stw	r3,-44(fp)

	t_0 = PCt_0;
 1082bcc:	e0bff117 	ldw	r2,-60(fp)
 1082bd0:	e0bff615 	stw	r2,-40(fp)
	t_1 = C_0 * PP[0][1];
 1082bd4:	e0bfef07 	ldb	r2,-68(fp)
 1082bd8:	1009883a 	mov	r4,r2
 1082bdc:	10888900 	call	1088890 <__floatsisf>
 1082be0:	1009883a 	mov	r4,r2
 1082be4:	e0bffc17 	ldw	r2,-16(fp)
 1082be8:	10c00717 	ldw	r3,28(r2)
 1082bec:	180b883a 	mov	r5,r3
 1082bf0:	1087f400 	call	1087f40 <__mulsf3>
 1082bf4:	1007883a 	mov	r3,r2
 1082bf8:	e0fff715 	stw	r3,-36(fp)

	PP[0][0] -= K_0 * t_0;
 1082bfc:	e0bffc17 	ldw	r2,-16(fp)
 1082c00:	14000617 	ldw	r16,24(r2)
 1082c04:	e17ff617 	ldw	r5,-40(fp)
 1082c08:	e13ff417 	ldw	r4,-48(fp)
 1082c0c:	1087f400 	call	1087f40 <__mulsf3>
 1082c10:	1007883a 	mov	r3,r2
 1082c14:	1805883a 	mov	r2,r3
 1082c18:	100b883a 	mov	r5,r2
 1082c1c:	8009883a 	mov	r4,r16
 1082c20:	108833c0 	call	108833c <__subsf3>
 1082c24:	1009883a 	mov	r4,r2
 1082c28:	2007883a 	mov	r3,r4
 1082c2c:	e0bffc17 	ldw	r2,-16(fp)
 1082c30:	10c00615 	stw	r3,24(r2)
	PP[0][1] -= K_0 * t_1;
 1082c34:	e0bffc17 	ldw	r2,-16(fp)
 1082c38:	14000717 	ldw	r16,28(r2)
 1082c3c:	e17ff717 	ldw	r5,-36(fp)
 1082c40:	e13ff417 	ldw	r4,-48(fp)
 1082c44:	1087f400 	call	1087f40 <__mulsf3>
 1082c48:	1007883a 	mov	r3,r2
 1082c4c:	1805883a 	mov	r2,r3
 1082c50:	100b883a 	mov	r5,r2
 1082c54:	8009883a 	mov	r4,r16
 1082c58:	108833c0 	call	108833c <__subsf3>
 1082c5c:	1009883a 	mov	r4,r2
 1082c60:	2007883a 	mov	r3,r4
 1082c64:	e0bffc17 	ldw	r2,-16(fp)
 1082c68:	10c00715 	stw	r3,28(r2)
	PP[1][0] -= K_1 * t_0;
 1082c6c:	e0bffc17 	ldw	r2,-16(fp)
 1082c70:	14000817 	ldw	r16,32(r2)
 1082c74:	e17ff617 	ldw	r5,-40(fp)
 1082c78:	e13ff517 	ldw	r4,-44(fp)
 1082c7c:	1087f400 	call	1087f40 <__mulsf3>
 1082c80:	1007883a 	mov	r3,r2
 1082c84:	1805883a 	mov	r2,r3
 1082c88:	100b883a 	mov	r5,r2
 1082c8c:	8009883a 	mov	r4,r16
 1082c90:	108833c0 	call	108833c <__subsf3>
 1082c94:	1009883a 	mov	r4,r2
 1082c98:	2007883a 	mov	r3,r4
 1082c9c:	e0bffc17 	ldw	r2,-16(fp)
 1082ca0:	10c00815 	stw	r3,32(r2)
	PP[1][1] -= K_1 * t_1;
 1082ca4:	e0bffc17 	ldw	r2,-16(fp)
 1082ca8:	14000917 	ldw	r16,36(r2)
 1082cac:	e17ff717 	ldw	r5,-36(fp)
 1082cb0:	e13ff517 	ldw	r4,-44(fp)
 1082cb4:	1087f400 	call	1087f40 <__mulsf3>
 1082cb8:	1007883a 	mov	r3,r2
 1082cbc:	1805883a 	mov	r2,r3
 1082cc0:	100b883a 	mov	r5,r2
 1082cc4:	8009883a 	mov	r4,r16
 1082cc8:	108833c0 	call	108833c <__subsf3>
 1082ccc:	1009883a 	mov	r4,r2
 1082cd0:	2007883a 	mov	r3,r4
 1082cd4:	e0bffc17 	ldw	r2,-16(fp)
 1082cd8:	10c00915 	stw	r3,36(r2)

	angle	+= K_0 * Angle_err;
 1082cdc:	e0bffc17 	ldw	r2,-16(fp)
 1082ce0:	14000417 	ldw	r16,16(r2)
 1082ce4:	e17ff017 	ldw	r5,-64(fp)
 1082ce8:	e13ff417 	ldw	r4,-48(fp)
 1082cec:	1087f400 	call	1087f40 <__mulsf3>
 1082cf0:	1007883a 	mov	r3,r2
 1082cf4:	1805883a 	mov	r2,r3
 1082cf8:	100b883a 	mov	r5,r2
 1082cfc:	8009883a 	mov	r4,r16
 1082d00:	108743c0 	call	108743c <__addsf3>
 1082d04:	1009883a 	mov	r4,r2
 1082d08:	2007883a 	mov	r3,r4
 1082d0c:	e0bffc17 	ldw	r2,-16(fp)
 1082d10:	10c00415 	stw	r3,16(r2)
	Q_bias	+= K_1 * Angle_err;
 1082d14:	e0bffc17 	ldw	r2,-16(fp)
 1082d18:	14000517 	ldw	r16,20(r2)
 1082d1c:	e17ff017 	ldw	r5,-64(fp)
 1082d20:	e13ff517 	ldw	r4,-44(fp)
 1082d24:	1087f400 	call	1087f40 <__mulsf3>
 1082d28:	1007883a 	mov	r3,r2
 1082d2c:	1805883a 	mov	r2,r3
 1082d30:	100b883a 	mov	r5,r2
 1082d34:	8009883a 	mov	r4,r16
 1082d38:	108743c0 	call	108743c <__addsf3>
 1082d3c:	1009883a 	mov	r4,r2
 1082d40:	2007883a 	mov	r3,r4
 1082d44:	e0bffc17 	ldw	r2,-16(fp)
 1082d48:	10c00515 	stw	r3,20(r2)

	return angle;
 1082d4c:	e0bffc17 	ldw	r2,-16(fp)
 1082d50:	10c00417 	ldw	r3,16(r2)
 1082d54:	1805883a 	mov	r2,r3

}
 1082d58:	e6ffff04 	addi	sp,fp,-4
 1082d5c:	dfc00217 	ldw	ra,8(sp)
 1082d60:	df000117 	ldw	fp,4(sp)
 1082d64:	dc000017 	ldw	r16,0(sp)
 1082d68:	dec00304 	addi	sp,sp,12
 1082d6c:	f800283a 	ret

01082d70 <_Z9Get_Anglev>:
Function     : Get Angle value (Kalman filter)
parameter    :
return value :
**************************************************************************/
void Get_Angle(void)
 {
 1082d70:	defff604 	addi	sp,sp,-40
 1082d74:	dfc00915 	stw	ra,36(sp)
 1082d78:	df000815 	stw	fp,32(sp)
 1082d7c:	dc400715 	stw	r17,28(sp)
 1082d80:	dc000615 	stw	r16,24(sp)
 1082d84:	df000804 	addi	fp,sp,32
 		int16_t ax, ay, az, gx, gy, gz;
 		mpu.getMotion6(&ax, &ay, &az, &gx, &gy, &gz);
 1082d88:	e13ffc04 	addi	r4,fp,-16
 1082d8c:	e0fffb84 	addi	r3,fp,-18
 1082d90:	e0bffd84 	addi	r2,fp,-10
 1082d94:	d8800215 	stw	r2,8(sp)
 1082d98:	e0bffd04 	addi	r2,fp,-12
 1082d9c:	d8800115 	stw	r2,4(sp)
 1082da0:	e0bffc84 	addi	r2,fp,-14
 1082da4:	d8800015 	stw	r2,0(sp)
 1082da8:	200f883a 	mov	r7,r4
 1082dac:	180d883a 	mov	r6,r3
 1082db0:	e17ffb04 	addi	r5,fp,-20
 1082db4:	010042b4 	movhi	r4,266
 1082db8:	2101bb04 	addi	r4,r4,1772
 1082dbc:	1081a080 	call	1081a08 <_ZN3MPU10getMotion6EPsS0_S0_S0_S0_S0_>
 		Gyro_Balance=-gy;
 1082dc0:	e0bffd0b 	ldhu	r2,-12(fp)
 1082dc4:	10bfffcc 	andi	r2,r2,65535
 1082dc8:	10a0001c 	xori	r2,r2,32768
 1082dcc:	10a00004 	addi	r2,r2,-32768
 1082dd0:	0085c83a 	sub	r2,zero,r2
 1082dd4:	1009883a 	mov	r4,r2
 1082dd8:	10888900 	call	1088890 <__floatsisf>
 1082ddc:	1007883a 	mov	r3,r2
 1082de0:	d0e73815 	stw	r3,-25376(gp)
 		x_angle=atan2(ax,az)*180/PI;
 1082de4:	e0bffb0b 	ldhu	r2,-20(fp)
 1082de8:	10bfffcc 	andi	r2,r2,65535
 1082dec:	10a0001c 	xori	r2,r2,32768
 1082df0:	10a00004 	addi	r2,r2,-32768
 1082df4:	1009883a 	mov	r4,r2
 1082df8:	108ada80 	call	108ada8 <__floatsidf>
 1082dfc:	1021883a 	mov	r16,r2
 1082e00:	1823883a 	mov	r17,r3
 1082e04:	e0bffc0b 	ldhu	r2,-16(fp)
 1082e08:	10bfffcc 	andi	r2,r2,65535
 1082e0c:	10a0001c 	xori	r2,r2,32768
 1082e10:	10a00004 	addi	r2,r2,-32768
 1082e14:	1009883a 	mov	r4,r2
 1082e18:	108ada80 	call	108ada8 <__floatsidf>
 1082e1c:	1009883a 	mov	r4,r2
 1082e20:	180b883a 	mov	r5,r3
 1082e24:	200d883a 	mov	r6,r4
 1082e28:	280f883a 	mov	r7,r5
 1082e2c:	8009883a 	mov	r4,r16
 1082e30:	880b883a 	mov	r5,r17
 1082e34:	10869c80 	call	10869c8 <atan2>
 1082e38:	1011883a 	mov	r8,r2
 1082e3c:	1813883a 	mov	r9,r3
 1082e40:	000d883a 	mov	r6,zero
 1082e44:	01d019f4 	movhi	r7,16487
 1082e48:	39e00004 	addi	r7,r7,-32768
 1082e4c:	4009883a 	mov	r4,r8
 1082e50:	480b883a 	mov	r5,r9
 1082e54:	1089d140 	call	1089d14 <__muldf3>
 1082e58:	1009883a 	mov	r4,r2
 1082e5c:	180b883a 	mov	r5,r3
 1082e60:	2021883a 	mov	r16,r4
 1082e64:	2823883a 	mov	r17,r5
 1082e68:	d0a00c17 	ldw	r2,-32720(gp)
 1082e6c:	1009883a 	mov	r4,r2
 1082e70:	108ae840 	call	108ae84 <__extendsfdf2>
 1082e74:	1009883a 	mov	r4,r2
 1082e78:	180b883a 	mov	r5,r3
 1082e7c:	200d883a 	mov	r6,r4
 1082e80:	280f883a 	mov	r7,r5
 1082e84:	8009883a 	mov	r4,r16
 1082e88:	880b883a 	mov	r5,r17
 1082e8c:	10893500 	call	1089350 <__divdf3>
 1082e90:	1009883a 	mov	r4,r2
 1082e94:	180b883a 	mov	r5,r3
 1082e98:	2005883a 	mov	r2,r4
 1082e9c:	2807883a 	mov	r3,r5
 1082ea0:	1009883a 	mov	r4,r2
 1082ea4:	180b883a 	mov	r5,r3
 1082ea8:	108af940 	call	108af94 <__truncdfsf2>
 1082eac:	1007883a 	mov	r3,r2
 1082eb0:	d0e73c15 	stw	r3,-25360(gp)
 		gy=gy/16.4;
 1082eb4:	e0bffd0b 	ldhu	r2,-12(fp)
 1082eb8:	10bfffcc 	andi	r2,r2,65535
 1082ebc:	10a0001c 	xori	r2,r2,32768
 1082ec0:	10a00004 	addi	r2,r2,-32768
 1082ec4:	1009883a 	mov	r4,r2
 1082ec8:	108ada80 	call	108ada8 <__floatsidf>
 1082ecc:	1011883a 	mov	r8,r2
 1082ed0:	1813883a 	mov	r9,r3
 1082ed4:	019999b4 	movhi	r6,26214
 1082ed8:	31999984 	addi	r6,r6,26214
 1082edc:	01d00c34 	movhi	r7,16432
 1082ee0:	39d99984 	addi	r7,r7,26214
 1082ee4:	4009883a 	mov	r4,r8
 1082ee8:	480b883a 	mov	r5,r9
 1082eec:	10893500 	call	1089350 <__divdf3>
 1082ef0:	1009883a 	mov	r4,r2
 1082ef4:	180b883a 	mov	r5,r3
 1082ef8:	2005883a 	mov	r2,r4
 1082efc:	2807883a 	mov	r3,r5
 1082f00:	1009883a 	mov	r4,r2
 1082f04:	180b883a 	mov	r5,r3
 1082f08:	108ad280 	call	108ad28 <__fixdfsi>
 1082f0c:	e0bffd0d 	sth	r2,-12(fp)
 		Angle_Balance=kalman.getAngle(x_angle,-gy);
 1082f10:	d4273c17 	ldw	r16,-25360(gp)
 1082f14:	e0bffd0b 	ldhu	r2,-12(fp)
 1082f18:	10bfffcc 	andi	r2,r2,65535
 1082f1c:	10a0001c 	xori	r2,r2,32768
 1082f20:	10a00004 	addi	r2,r2,-32768
 1082f24:	0085c83a 	sub	r2,zero,r2
 1082f28:	1009883a 	mov	r4,r2
 1082f2c:	10888900 	call	1088890 <__floatsisf>
 1082f30:	1007883a 	mov	r3,r2
 1082f34:	180d883a 	mov	r6,r3
 1082f38:	800b883a 	mov	r5,r16
 1082f3c:	010042b4 	movhi	r4,266
 1082f40:	2101c104 	addi	r4,r4,1796
 1082f44:	10828ec0 	call	10828ec <_ZN6Kalman8getAngleEff>
 1082f48:	1007883a 	mov	r3,r2
 1082f4c:	d0e73715 	stw	r3,-25380(gp)
 		//printf("Angle_Balance=%f\r\n",Angle_Balance);
 		Gyro_Turn=gz;
 1082f50:	e0bffd8b 	ldhu	r2,-10(fp)
 1082f54:	10bfffcc 	andi	r2,r2,65535
 1082f58:	10a0001c 	xori	r2,r2,32768
 1082f5c:	10a00004 	addi	r2,r2,-32768
 1082f60:	1009883a 	mov	r4,r2
 1082f64:	10888900 	call	1088890 <__floatsisf>
 1082f68:	1007883a 	mov	r3,r2
 1082f6c:	d0e73915 	stw	r3,-25372(gp)
 }
 1082f70:	0001883a 	nop
 1082f74:	e6fffe04 	addi	sp,fp,-8
 1082f78:	dfc00317 	ldw	ra,12(sp)
 1082f7c:	df000217 	ldw	fp,8(sp)
 1082f80:	dc400117 	ldw	r17,4(sp)
 1082f84:	dc000017 	ldw	r16,0(sp)
 1082f88:	dec00404 	addi	sp,sp,16
 1082f8c:	f800283a 	ret

01082f90 <_Z10read_powerhPt>:
 /**************************************************************************
 Function     : ADC_LTC2308 Read power
 parameter    : Channel
 return value : Power data
 **************************************************************************/
void read_power(alt_u8 ch , alt_u16 *pRegValue){
 1082f90:	defffb04 	addi	sp,sp,-20
 1082f94:	dfc00415 	stw	ra,16(sp)
 1082f98:	df000315 	stw	fp,12(sp)
 1082f9c:	df000304 	addi	fp,sp,12
 1082fa0:	2005883a 	mov	r2,r4
 1082fa4:	e17fff15 	stw	r5,-4(fp)
 1082fa8:	e0bffe05 	stb	r2,-8(fp)
 	int  Value;
 	// set measure number for ADC convert
 	IOWR(ADC_LTC2308_0_BASE, 0x01, 1);
 1082fac:	00c00044 	movi	r3,1
 1082fb0:	00800d04 	movi	r2,52
 1082fb4:	10c00035 	stwio	r3,0(r2)
 	// start measure
 	IOWR(ADC_LTC2308_0_BASE, 0x00, (ch << 1) | 0x00);
 1082fb8:	e0bffe03 	ldbu	r2,-8(fp)
 1082fbc:	1085883a 	add	r2,r2,r2
 1082fc0:	1007883a 	mov	r3,r2
 1082fc4:	00800c04 	movi	r2,48
 1082fc8:	10c00035 	stwio	r3,0(r2)
 	IOWR(ADC_LTC2308_0_BASE, 0x00, (ch << 1) | 0x01);
 1082fcc:	e0bffe03 	ldbu	r2,-8(fp)
 1082fd0:	1085883a 	add	r2,r2,r2
 1082fd4:	10c00054 	ori	r3,r2,1
 1082fd8:	00800c04 	movi	r2,48
 1082fdc:	10c00035 	stwio	r3,0(r2)
 	IOWR(ADC_LTC2308_0_BASE, 0x00, (ch << 1) | 0x00);
 1082fe0:	e0bffe03 	ldbu	r2,-8(fp)
 1082fe4:	1085883a 	add	r2,r2,r2
 1082fe8:	1007883a 	mov	r3,r2
 1082fec:	00800c04 	movi	r2,48
 1082ff0:	10c00035 	stwio	r3,0(r2)
 	usleep(1);
 1082ff4:	01000044 	movi	r4,1
 1082ff8:	109a2600 	call	109a260 <usleep>
 	while ((IORD(ADC_LTC2308_0_BASE,0x00) & 0x01) == 0x00);
 1082ffc:	00800c04 	movi	r2,48
 1083000:	10800037 	ldwio	r2,0(r2)
 1083004:	1080004c 	andi	r2,r2,1
 1083008:	1005003a 	cmpeq	r2,r2,zero
 108300c:	10803fcc 	andi	r2,r2,255
 1083010:	10000126 	beq	r2,zero,1083018 <_Z10read_powerhPt+0x88>
 1083014:	003ff906 	br	1082ffc <__alt_data_end+0xfffb9c1c>
 	Value = IORD(ADC_LTC2308_0_BASE, 0x01);
 1083018:	00800d04 	movi	r2,52
 108301c:	10800037 	ldwio	r2,0(r2)
 1083020:	e0bffd15 	stw	r2,-12(fp)
 	//printf("Value=%d\n",Value);
 	*pRegValue= Value;
 1083024:	e0bffd17 	ldw	r2,-12(fp)
 1083028:	1007883a 	mov	r3,r2
 108302c:	e0bfff17 	ldw	r2,-4(fp)
 1083030:	10c0000d 	sth	r3,0(r2)
 }
 1083034:	0001883a 	nop
 1083038:	e037883a 	mov	sp,fp
 108303c:	dfc00117 	ldw	ra,4(sp)
 1083040:	df000017 	ldw	fp,0(sp)
 1083044:	dec00204 	addi	sp,sp,8
 1083048:	f800283a 	ret

0108304c <_Z14CommandParsingPcPiS0_>:
 /**************************************************************************
 Function     : Bluetooth Command Parsing
 parameter    : Command Command ID
 return value : Command Parsing data
 **************************************************************************/
bool CommandParsing(char *pCommand, int *pCommandID, int *pParam){
 108304c:	defff104 	addi	sp,sp,-60
 1083050:	dfc00e15 	stw	ra,56(sp)
 1083054:	df000d15 	stw	fp,52(sp)
 1083058:	dc000c15 	stw	r16,48(sp)
 108305c:	df000d04 	addi	fp,sp,52
 1083060:	e13ffc15 	stw	r4,-16(fp)
 1083064:	e17ffd15 	stw	r5,-12(fp)
 1083068:	e1bffe15 	stw	r6,-8(fp)
 	bool bFind = false;
 108306c:	e03ff305 	stb	zero,-52(fp)
 	int nNum, i, j , x=0;
 1083070:	e03ff615 	stw	zero,-40(fp)
 	bool find_equal = false;
 1083074:	e03ff705 	stb	zero,-36(fp)
 	char Data[10]={0};
 1083078:	e03ff915 	stw	zero,-28(fp)
 108307c:	e03ffa15 	stw	zero,-24(fp)
 1083080:	e03ffb0d 	sth	zero,-20(fp)
 	nNum = sizeof(gCommandList)/sizeof(gCommandList[0]);
 1083084:	00800244 	movi	r2,9
 1083088:	e0bff815 	stw	r2,-32(fp)

 	for(i=0;i<nNum && !bFind;i++){
 108308c:	e03ff415 	stw	zero,-48(fp)
 1083090:	e0fff417 	ldw	r3,-48(fp)
 1083094:	e0bff817 	ldw	r2,-32(fp)
 1083098:	1880580e 	bge	r3,r2,10831fc <_Z14CommandParsingPcPiS0_+0x1b0>
 108309c:	e0bff303 	ldbu	r2,-52(fp)
 10830a0:	1000561e 	bne	r2,zero,10831fc <_Z14CommandParsingPcPiS0_+0x1b0>
 		if (strncmp(pCommand, gCommandList[i].szCommand, strlen(gCommandList[i].szCommand)) == 0){
 10830a4:	e0bff417 	ldw	r2,-48(fp)
 10830a8:	10c00524 	muli	r3,r2,20
 10830ac:	008042b4 	movhi	r2,266
 10830b0:	10b37504 	addi	r2,r2,-12844
 10830b4:	18a1883a 	add	r16,r3,r2
 10830b8:	e0bff417 	ldw	r2,-48(fp)
 10830bc:	10c00524 	muli	r3,r2,20
 10830c0:	008042b4 	movhi	r2,266
 10830c4:	10b37504 	addi	r2,r2,-12844
 10830c8:	1885883a 	add	r2,r3,r2
 10830cc:	1009883a 	mov	r4,r2
 10830d0:	108c6840 	call	108c684 <strlen>
 10830d4:	100d883a 	mov	r6,r2
 10830d8:	800b883a 	mov	r5,r16
 10830dc:	e13ffc17 	ldw	r4,-16(fp)
 10830e0:	108c71c0 	call	108c71c <strncmp>
 10830e4:	1000411e 	bne	r2,zero,10831ec <_Z14CommandParsingPcPiS0_+0x1a0>
 			*pCommandID = gCommandList[i].CommandId;
 10830e8:	008042b4 	movhi	r2,266
 10830ec:	10b37504 	addi	r2,r2,-12844
 10830f0:	e0fff417 	ldw	r3,-48(fp)
 10830f4:	18c00524 	muli	r3,r3,20
 10830f8:	10c5883a 	add	r2,r2,r3
 10830fc:	10800304 	addi	r2,r2,12
 1083100:	10c00017 	ldw	r3,0(r2)
 1083104:	e0bffd17 	ldw	r2,-12(fp)
 1083108:	10c00015 	stw	r3,0(r2)
 			if (gCommandList[i].bParameter){
 108310c:	008042b4 	movhi	r2,266
 1083110:	10b37504 	addi	r2,r2,-12844
 1083114:	e0fff417 	ldw	r3,-48(fp)
 1083118:	18c00524 	muli	r3,r3,20
 108311c:	10c5883a 	add	r2,r2,r3
 1083120:	10800404 	addi	r2,r2,16
 1083124:	10800003 	ldbu	r2,0(r2)
 1083128:	10803fcc 	andi	r2,r2,255
 108312c:	10002d26 	beq	r2,zero,10831e4 <_Z14CommandParsingPcPiS0_+0x198>
 				//*pParam = 10; //??
 				//for(j=0;pCommand[j]!=0x0a;j++){
 				for(j=0;pCommand[j]!=0x0d;j++){
 1083130:	e03ff515 	stw	zero,-44(fp)
 1083134:	e0bff517 	ldw	r2,-44(fp)
 1083138:	e0fffc17 	ldw	r3,-16(fp)
 108313c:	1885883a 	add	r2,r3,r2
 1083140:	10800003 	ldbu	r2,0(r2)
 1083144:	10803fcc 	andi	r2,r2,255
 1083148:	1080201c 	xori	r2,r2,128
 108314c:	10bfe004 	addi	r2,r2,-128
 1083150:	10800360 	cmpeqi	r2,r2,13
 1083154:	10001d1e 	bne	r2,zero,10831cc <_Z14CommandParsingPcPiS0_+0x180>
 					if(find_equal==true){
 1083158:	e0bff703 	ldbu	r2,-36(fp)
 108315c:	10000c26 	beq	r2,zero,1083190 <_Z14CommandParsingPcPiS0_+0x144>
 						Data[x] = pCommand[j];
 1083160:	e0bff517 	ldw	r2,-44(fp)
 1083164:	e0fffc17 	ldw	r3,-16(fp)
 1083168:	1885883a 	add	r2,r3,r2
 108316c:	10c00003 	ldbu	r3,0(r2)
 1083170:	e13ff904 	addi	r4,fp,-28
 1083174:	e0bff617 	ldw	r2,-40(fp)
 1083178:	2085883a 	add	r2,r4,r2
 108317c:	10c00005 	stb	r3,0(r2)
 						x++;
 1083180:	e0bff617 	ldw	r2,-40(fp)
 1083184:	10800044 	addi	r2,r2,1
 1083188:	e0bff615 	stw	r2,-40(fp)
 108318c:	00000b06 	br	10831bc <_Z14CommandParsingPcPiS0_+0x170>
 					}
 					else if(pCommand[j]=='=')
 1083190:	e0bff517 	ldw	r2,-44(fp)
 1083194:	e0fffc17 	ldw	r3,-16(fp)
 1083198:	1885883a 	add	r2,r3,r2
 108319c:	10800003 	ldbu	r2,0(r2)
 10831a0:	10803fcc 	andi	r2,r2,255
 10831a4:	1080201c 	xori	r2,r2,128
 10831a8:	10bfe004 	addi	r2,r2,-128
 10831ac:	10800f58 	cmpnei	r2,r2,61
 10831b0:	1000021e 	bne	r2,zero,10831bc <_Z14CommandParsingPcPiS0_+0x170>
 						find_equal=true;
 10831b4:	00800044 	movi	r2,1
 10831b8:	e0bff705 	stb	r2,-36(fp)
 		if (strncmp(pCommand, gCommandList[i].szCommand, strlen(gCommandList[i].szCommand)) == 0){
 			*pCommandID = gCommandList[i].CommandId;
 			if (gCommandList[i].bParameter){
 				//*pParam = 10; //??
 				//for(j=0;pCommand[j]!=0x0a;j++){
 				for(j=0;pCommand[j]!=0x0d;j++){
 10831bc:	e0bff517 	ldw	r2,-44(fp)
 10831c0:	10800044 	addi	r2,r2,1
 10831c4:	e0bff515 	stw	r2,-44(fp)
 10831c8:	003fda06 	br	1083134 <__alt_data_end+0xfffb9d54>
 						x++;
 					}
 					else if(pCommand[j]=='=')
 						find_equal=true;
 				}
 				*pParam=atoi(Data);
 10831cc:	e0bff904 	addi	r2,fp,-28
 10831d0:	1009883a 	mov	r4,r2
 10831d4:	108b6d80 	call	108b6d8 <atoi>
 10831d8:	1007883a 	mov	r3,r2
 10831dc:	e0bffe17 	ldw	r2,-8(fp)
 10831e0:	10c00015 	stw	r3,0(r2)
 			}
 			bFind = true;
 10831e4:	00800044 	movi	r2,1
 10831e8:	e0bff305 	stb	r2,-52(fp)
 	int nNum, i, j , x=0;
 	bool find_equal = false;
 	char Data[10]={0};
 	nNum = sizeof(gCommandList)/sizeof(gCommandList[0]);

 	for(i=0;i<nNum && !bFind;i++){
 10831ec:	e0bff417 	ldw	r2,-48(fp)
 10831f0:	10800044 	addi	r2,r2,1
 10831f4:	e0bff415 	stw	r2,-48(fp)
 10831f8:	003fa506 	br	1083090 <__alt_data_end+0xfffb9cb0>
 				*pParam=atoi(Data);
 			}
 			bFind = true;
 		} // if
 	} // for
 	return bFind;
 10831fc:	e0bff303 	ldbu	r2,-52(fp)
 }
 1083200:	e6ffff04 	addi	sp,fp,-4
 1083204:	dfc00217 	ldw	ra,8(sp)
 1083208:	df000117 	ldw	fp,4(sp)
 108320c:	dc000017 	ldw	r16,0(sp)
 1083210:	dec00304 	addi	sp,sp,12
 1083214:	f800283a 	ret

01083218 <_Z10uart_writePc>:
 Function     : Bluetooth Data Send
 parameter    : data
 return value :
 **************************************************************************/
void uart_write(char *string)
 {
 1083218:	defffa04 	addi	sp,sp,-24
 108321c:	dfc00515 	stw	ra,20(sp)
 1083220:	df000415 	stw	fp,16(sp)
 1083224:	df000404 	addi	fp,sp,16
 1083228:	e13fff15 	stw	r4,-4(fp)
 	int i;
 	alt_32 temp;
 	int len=strlen(string);
 108322c:	e13fff17 	ldw	r4,-4(fp)
 1083230:	108c6840 	call	108c684 <strlen>
 1083234:	e0bffd15 	stw	r2,-12(fp)
 	for(i=0;i<len;i++)
 1083238:	e03ffc15 	stw	zero,-16(fp)
 108323c:	e0fffc17 	ldw	r3,-16(fp)
 1083240:	e0bffd17 	ldw	r2,-12(fp)
 1083244:	18801c0e 	bge	r3,r2,10832b8 <_Z10uart_writePc+0xa0>
 	{
 		temp=IORD(UART_BT_BASE,0x01);
 1083248:	00804434 	movhi	r2,272
 108324c:	10842f04 	addi	r2,r2,4284
 1083250:	10800037 	ldwio	r2,0(r2)
 1083254:	e0bffe15 	stw	r2,-8(fp)
 		temp=temp>>16&0xff;
 1083258:	e0bffe17 	ldw	r2,-8(fp)
 108325c:	1005d43a 	srai	r2,r2,16
 1083260:	10803fcc 	andi	r2,r2,255
 1083264:	e0bffe15 	stw	r2,-8(fp)
 		if(temp>0)IOWR(UART_BT_BASE,0x0,*string++);
 1083268:	e0bffe17 	ldw	r2,-8(fp)
 108326c:	00800b0e 	bge	zero,r2,108329c <_Z10uart_writePc+0x84>
 1083270:	e0bfff17 	ldw	r2,-4(fp)
 1083274:	10c00044 	addi	r3,r2,1
 1083278:	e0ffff15 	stw	r3,-4(fp)
 108327c:	10800003 	ldbu	r2,0(r2)
 1083280:	10c03fcc 	andi	r3,r2,255
 1083284:	18c0201c 	xori	r3,r3,128
 1083288:	18ffe004 	addi	r3,r3,-128
 108328c:	00804434 	movhi	r2,272
 1083290:	10842e04 	addi	r2,r2,4280
 1083294:	10c00035 	stwio	r3,0(r2)
 1083298:	00000306 	br	10832a8 <_Z10uart_writePc+0x90>
 		else i--;
 108329c:	e0bffc17 	ldw	r2,-16(fp)
 10832a0:	10bfffc4 	addi	r2,r2,-1
 10832a4:	e0bffc15 	stw	r2,-16(fp)
void uart_write(char *string)
 {
 	int i;
 	alt_32 temp;
 	int len=strlen(string);
 	for(i=0;i<len;i++)
 10832a8:	e0bffc17 	ldw	r2,-16(fp)
 10832ac:	10800044 	addi	r2,r2,1
 10832b0:	e0bffc15 	stw	r2,-16(fp)
 10832b4:	003fe106 	br	108323c <__alt_data_end+0xfffb9e5c>
 		temp=IORD(UART_BT_BASE,0x01);
 		temp=temp>>16&0xff;
 		if(temp>0)IOWR(UART_BT_BASE,0x0,*string++);
 		else i--;
 	}
 }
 10832b8:	0001883a 	nop
 10832bc:	e037883a 	mov	sp,fp
 10832c0:	dfc00117 	ldw	ra,4(sp)
 10832c4:	df000017 	ldw	fp,0(sp)
 10832c8:	dec00204 	addi	sp,sp,8
 10832cc:	f800283a 	ret

010832d0 <_Z13UnNomal_Checkv>:
 Function     : UnNormal State Check
 parameter    : Angle_Balance value and power voltage
 return value :
 **************************************************************************/
 void  UnNomal_Check()
  {
 10832d0:	defffe04 	addi	sp,sp,-8
 10832d4:	dfc00115 	stw	ra,4(sp)
 10832d8:	df000015 	stw	fp,0(sp)
 10832dc:	d839883a 	mov	fp,sp
  	if(pick_up||Angle_Balance>70||Angle_Balance<-70)
 10832e0:	d0a744c3 	ldbu	r2,-25325(gp)
 10832e4:	10803fcc 	andi	r2,r2,255
 10832e8:	10000b1e 	bne	r2,zero,1083318 <_Z13UnNomal_Checkv+0x48>
 10832ec:	d0a73717 	ldw	r2,-25380(gp)
 10832f0:	0150a334 	movhi	r5,17036
 10832f4:	1009883a 	mov	r4,r2
 10832f8:	1087dbc0 	call	1087dbc <__gesf2>
 10832fc:	00800616 	blt	zero,r2,1083318 <_Z13UnNomal_Checkv+0x48>
 1083300:	d0a73717 	ldw	r2,-25380(gp)
 1083304:	0170a334 	movhi	r5,49804
 1083308:	1009883a 	mov	r4,r2
 108330c:	1087e780 	call	1087e78 <__lesf2>
 1083310:	10000116 	blt	r2,zero,1083318 <_Z13UnNomal_Checkv+0x48>
  		Car.Stop_fast();
  		demo=false;
  		stop_flag=true;
  		pick_up=false;
  	}
  }
 1083314:	00000d06 	br	108334c <_Z13UnNomal_Checkv+0x7c>
 **************************************************************************/
 void  UnNomal_Check()
  {
  	if(pick_up||Angle_Balance>70||Angle_Balance<-70)
  	{
  		IOWR_ALTERA_AVALON_PIO_DATA(LED_BASE,0x00);
 1083318:	0007883a 	mov	r3,zero
 108331c:	00800804 	movi	r2,32
 1083320:	10c00035 	stwio	r3,0(r2)
  		Car.Pause();
 1083324:	010042b4 	movhi	r4,266
 1083328:	2101cb04 	addi	r4,r4,1836
 108332c:	10809580 	call	1080958 <_ZN4CCar5PauseEv>
  		Car.Stop_fast();
 1083330:	010042b4 	movhi	r4,266
 1083334:	2101cb04 	addi	r4,r4,1836
 1083338:	10809080 	call	1080908 <_ZN4CCar9Stop_fastEv>
  		demo=false;
 108333c:	d0274445 	stb	zero,-25327(gp)
  		stop_flag=true;
 1083340:	00800044 	movi	r2,1
 1083344:	d0a74405 	stb	r2,-25328(gp)
  		pick_up=false;
 1083348:	d02744c5 	stb	zero,-25325(gp)
  	}
  }
 108334c:	0001883a 	nop
 1083350:	e037883a 	mov	sp,fp
 1083354:	dfc00117 	ldw	ra,4(sp)
 1083358:	df000017 	ldw	fp,0(sp)
 108335c:	dec00204 	addi	sp,sp,8
 1083360:	f800283a 	ret

01083364 <_Z13Restart_Checkv>:
 Function     : Normal State Check and Restart Self-Balance
 parameter    :
 return value : 1:normal  0:UnNormal
 **************************************************************************/
 bool  Restart_Check()
  {
 1083364:	defffe04 	addi	sp,sp,-8
 1083368:	dfc00115 	stw	ra,4(sp)
 108336c:	df000015 	stw	fp,0(sp)
 1083370:	d839883a 	mov	fp,sp
 	 if(x_angle<10&&x_angle>-10){
 1083374:	d0a73c17 	ldw	r2,-25360(gp)
 1083378:	01504834 	movhi	r5,16672
 108337c:	1009883a 	mov	r4,r2
 1083380:	1087e780 	call	1087e78 <__lesf2>
 1083384:	1000070e 	bge	r2,zero,10833a4 <_Z13Restart_Checkv+0x40>
 1083388:	d0a73c17 	ldw	r2,-25360(gp)
 108338c:	01704834 	movhi	r5,49440
 1083390:	1009883a 	mov	r4,r2
 1083394:	1087dbc0 	call	1087dbc <__gesf2>
 1083398:	0080020e 	bge	zero,r2,10833a4 <_Z13Restart_Checkv+0x40>
 		 return true;}
 108339c:	00800044 	movi	r2,1
 10833a0:	00000106 	br	10833a8 <_Z13Restart_Checkv+0x44>
 	 else
 		 return false;
 10833a4:	0005883a 	mov	r2,zero
  }
 10833a8:	e037883a 	mov	sp,fp
 10833ac:	dfc00117 	ldw	ra,4(sp)
 10833b0:	df000017 	ldw	fp,0(sp)
 10833b4:	dec00204 	addi	sp,sp,8
 10833b8:	f800283a 	ret

010833bc <_Z12MPU_INT_INITv>:
 Function     : MPU6500 interrupt (MPU6500 INT pin trigger)
 parameter    :
 return value :
 **************************************************************************/
 void MPU_INT_INIT(void)
  {
 10833bc:	defffe04 	addi	sp,sp,-8
 10833c0:	dfc00115 	stw	ra,4(sp)
 10833c4:	df000015 	stw	fp,0(sp)
 10833c8:	d839883a 	mov	fp,sp
  	 IOWR_ALTERA_AVALON_PIO_EDGE_CAP(MPU_INT_BASE,0x00);
 10833cc:	0007883a 	mov	r3,zero
 10833d0:	00804434 	movhi	r2,272
 10833d4:	10842304 	addi	r2,r2,4236
 10833d8:	10c00035 	stwio	r3,0(r2)
                                        MPU_INT_ISR,
                                 NULL,
                                 NULL
                                 )!= 0))
  #else
      if((alt_irq_register(MPU_INT_IRQ,NULL, MPU_INT_ISR  )!= 0))
 10833dc:	01804234 	movhi	r6,264
 10833e0:	318ff404 	addi	r6,r6,16336
 10833e4:	000b883a 	mov	r5,zero
 10833e8:	0009883a 	mov	r4,zero
 10833ec:	10999880 	call	1099988 <alt_irq_register>
 10833f0:	1004c03a 	cmpne	r2,r2,zero
 10833f4:	10803fcc 	andi	r2,r2,255
 10833f8:	10000326 	beq	r2,zero,1083408 <_Z12MPU_INT_INITv+0x4c>
  #endif
      	{
  			  printf("register irt failed\r\n");
 10833fc:	010042b4 	movhi	r4,266
 1083400:	21316404 	addi	r4,r4,-14960
 1083404:	108c1780 	call	108c178 <puts>
  		  }
  		IOWR_ALTERA_AVALON_PIO_IRQ_MASK(MPU_INT_BASE,0x01);
 1083408:	00c00044 	movi	r3,1
 108340c:	00804434 	movhi	r2,272
 1083410:	10842204 	addi	r2,r2,4232
 1083414:	10c00035 	stwio	r3,0(r2)
  }
 1083418:	0001883a 	nop
 108341c:	e037883a 	mov	sp,fp
 1083420:	dfc00117 	ldw	ra,4(sp)
 1083424:	df000017 	ldw	fp,0(sp)
 1083428:	dec00204 	addi	sp,sp,8
 108342c:	f800283a 	ret

01083430 <_Z15mpu_init_enableb>:
  Function     : MPU6500 Interrupt initialization
  parameter    :
  return value :
 **************************************************************************/
 void mpu_init_enable(bool enable)
  {
 1083430:	defffe04 	addi	sp,sp,-8
 1083434:	df000115 	stw	fp,4(sp)
 1083438:	df000104 	addi	fp,sp,4
 108343c:	2005883a 	mov	r2,r4
 1083440:	e0bfff05 	stb	r2,-4(fp)
  	if(enable==TRUE)
 1083444:	e0bfff03 	ldbu	r2,-4(fp)
 1083448:	10000526 	beq	r2,zero,1083460 <_Z15mpu_init_enableb+0x30>
  		IOWR_ALTERA_AVALON_PIO_IRQ_MASK(MPU_INT_BASE,0x01);
 108344c:	00c00044 	movi	r3,1
 1083450:	00804434 	movhi	r2,272
 1083454:	10842204 	addi	r2,r2,4232
 1083458:	10c00035 	stwio	r3,0(r2)
  	else
  		IOWR_ALTERA_AVALON_PIO_IRQ_MASK(MPU_INT_BASE,0x00);
  }
 108345c:	00000406 	br	1083470 <_Z15mpu_init_enableb+0x40>
 void mpu_init_enable(bool enable)
  {
  	if(enable==TRUE)
  		IOWR_ALTERA_AVALON_PIO_IRQ_MASK(MPU_INT_BASE,0x01);
  	else
  		IOWR_ALTERA_AVALON_PIO_IRQ_MASK(MPU_INT_BASE,0x00);
 1083460:	0007883a 	mov	r3,zero
 1083464:	00804434 	movhi	r2,272
 1083468:	10842204 	addi	r2,r2,4232
 108346c:	10c00035 	stwio	r3,0(r2)
  }
 1083470:	0001883a 	nop
 1083474:	e037883a 	mov	sp,fp
 1083478:	df000017 	ldw	fp,0(sp)
 108347c:	dec00104 	addi	sp,sp,4
 1083480:	f800283a 	ret

01083484 <_Z8set_parav>:
/**************************************************************************
Function     : Run the specified action (Demo Mode)
parameter    :
return value :
**************************************************************************/
void set_para(){
 1083484:	defffd04 	addi	sp,sp,-12
 1083488:	dfc00215 	stw	ra,8(sp)
 108348c:	df000115 	stw	fp,4(sp)
 1083490:	dc000015 	stw	r16,0(sp)
 1083494:	df000104 	addi	fp,sp,4
	static int count;
	static int count_times=0;
	//set Movement
 	if(Car.driver_direction&CAR_DIRECTION_FORWARD){
 1083498:	008042b4 	movhi	r2,266
 108349c:	1081cb04 	addi	r2,r2,1836
 10834a0:	10800b83 	ldbu	r2,46(r2)
 10834a4:	10803fcc 	andi	r2,r2,255
 10834a8:	1080004c 	andi	r2,r2,1
 10834ac:	10003126 	beq	r2,zero,1083574 <_Z8set_parav+0xf0>
 		if((distance<25.0)&(mode==0x02)&(flag==0x02)) Movement=-10;
 10834b0:	d0a73a17 	ldw	r2,-25368(gp)
 10834b4:	04000044 	movi	r16,1
 10834b8:	01507234 	movhi	r5,16840
 10834bc:	1009883a 	mov	r4,r2
 10834c0:	1087e780 	call	1087e78 <__lesf2>
 10834c4:	10000116 	blt	r2,zero,10834cc <_Z8set_parav+0x48>
 10834c8:	0021883a 	mov	r16,zero
 10834cc:	d0a74117 	ldw	r2,-25340(gp)
 10834d0:	108000a0 	cmpeqi	r2,r2,2
 10834d4:	8084703a 	and	r2,r16,r2
 10834d8:	10c03fcc 	andi	r3,r2,255
 10834dc:	d0a74217 	ldw	r2,-25336(gp)
 10834e0:	108000a0 	cmpeqi	r2,r2,2
 10834e4:	10803fcc 	andi	r2,r2,255
 10834e8:	1884703a 	and	r2,r3,r2
 10834ec:	10000326 	beq	r2,zero,10834fc <_Z8set_parav+0x78>
 10834f0:	00bffd84 	movi	r2,-10
 10834f4:	d0a73f15 	stw	r2,-25348(gp)
 10834f8:	00003006 	br	10835bc <_Z8set_parav+0x138>
 		else if((distance<25.0)&(cmd_ut)&(flag==0x01)) Movement=-10;
 10834fc:	d0a73a17 	ldw	r2,-25368(gp)
 1083500:	04000044 	movi	r16,1
 1083504:	01507234 	movhi	r5,16840
 1083508:	1009883a 	mov	r4,r2
 108350c:	1087e780 	call	1087e78 <__lesf2>
 1083510:	10000116 	blt	r2,zero,1083518 <_Z8set_parav+0x94>
 1083514:	0021883a 	mov	r16,zero
 1083518:	80c03fcc 	andi	r3,r16,255
 108351c:	d0a74483 	ldbu	r2,-25326(gp)
 1083520:	10803fcc 	andi	r2,r2,255
 1083524:	1886703a 	and	r3,r3,r2
 1083528:	d0a74217 	ldw	r2,-25336(gp)
 108352c:	10800060 	cmpeqi	r2,r2,1
 1083530:	10803fcc 	andi	r2,r2,255
 1083534:	1884703a 	and	r2,r3,r2
 1083538:	10000326 	beq	r2,zero,1083548 <_Z8set_parav+0xc4>
 108353c:	00bffd84 	movi	r2,-10
 1083540:	d0a73f15 	stw	r2,-25348(gp)
 1083544:	00001d06 	br	10835bc <_Z8set_parav+0x138>
 		else if(Angle_Balance<-10.0) Movement=-5;
 1083548:	d0a73717 	ldw	r2,-25380(gp)
 108354c:	01704834 	movhi	r5,49440
 1083550:	1009883a 	mov	r4,r2
 1083554:	1087e780 	call	1087e78 <__lesf2>
 1083558:	1000030e 	bge	r2,zero,1083568 <_Z8set_parav+0xe4>
 108355c:	00bffec4 	movi	r2,-5
 1083560:	d0a73f15 	stw	r2,-25348(gp)
 1083564:	00001506 	br	10835bc <_Z8set_parav+0x138>
 		else Movement=-48;}
 1083568:	00bff404 	movi	r2,-48
 108356c:	d0a73f15 	stw	r2,-25348(gp)
 1083570:	00001206 	br	10835bc <_Z8set_parav+0x138>
 	else if(Car.driver_direction&CAR_DIRECTION_BACKWARD){
 1083574:	008042b4 	movhi	r2,266
 1083578:	1081cb04 	addi	r2,r2,1836
 108357c:	10800b83 	ldbu	r2,46(r2)
 1083580:	10803fcc 	andi	r2,r2,255
 1083584:	1080008c 	andi	r2,r2,2
 1083588:	10000b26 	beq	r2,zero,10835b8 <_Z8set_parav+0x134>
 		if(Angle_Balance>12.0) Movement=5;
 108358c:	d0a73717 	ldw	r2,-25380(gp)
 1083590:	01505034 	movhi	r5,16704
 1083594:	1009883a 	mov	r4,r2
 1083598:	1087dbc0 	call	1087dbc <__gesf2>
 108359c:	0080030e 	bge	zero,r2,10835ac <_Z8set_parav+0x128>
 10835a0:	00800144 	movi	r2,5
 10835a4:	d0a73f15 	stw	r2,-25348(gp)
 10835a8:	00000406 	br	10835bc <_Z8set_parav+0x138>
 		else Movement=45;}
 10835ac:	00800b44 	movi	r2,45
 10835b0:	d0a73f15 	stw	r2,-25348(gp)
 10835b4:	00000106 	br	10835bc <_Z8set_parav+0x138>
 	else
 		 Movement=0;
 10835b8:	d0273f15 	stw	zero,-25348(gp)
 	//Run the specified action (Demo Mode)
	if(demo)
 10835bc:	d0a74443 	ldbu	r2,-25327(gp)
 10835c0:	10803fcc 	andi	r2,r2,255
 10835c4:	10015426 	beq	r2,zero,1083b18 <_Z8set_parav+0x694>
	{
		Car.Pause();
 10835c8:	010042b4 	movhi	r4,266
 10835cc:	2101cb04 	addi	r4,r4,1836
 10835d0:	10809580 	call	1080958 <_ZN4CCar5PauseEv>
		if(count_times==0)
 10835d4:	d0a74b17 	ldw	r2,-25300(gp)
 10835d8:	10001f1e 	bne	r2,zero,1083658 <_Z8set_parav+0x1d4>
		{
			Movement=-30;
 10835dc:	00bff884 	movi	r2,-30
 10835e0:	d0a73f15 	stw	r2,-25348(gp)
			demo_left=40;
 10835e4:	00800a04 	movi	r2,40
 10835e8:	d0a73d15 	stw	r2,-25356(gp)
			demo_right=-40;
 10835ec:	00bff604 	movi	r2,-40
 10835f0:	d0a73e15 	stw	r2,-25352(gp)
			count+=Gyro_Turn/1000;
 10835f4:	d0a74c17 	ldw	r2,-25296(gp)
 10835f8:	1009883a 	mov	r4,r2
 10835fc:	10888900 	call	1088890 <__floatsisf>
 1083600:	1021883a 	mov	r16,r2
 1083604:	d0a73917 	ldw	r2,-25372(gp)
 1083608:	01511eb4 	movhi	r5,17530
 108360c:	1009883a 	mov	r4,r2
 1083610:	10879040 	call	1087904 <__divsf3>
 1083614:	1007883a 	mov	r3,r2
 1083618:	1805883a 	mov	r2,r3
 108361c:	100b883a 	mov	r5,r2
 1083620:	8009883a 	mov	r4,r16
 1083624:	108743c0 	call	108743c <__addsf3>
 1083628:	1007883a 	mov	r3,r2
 108362c:	1805883a 	mov	r2,r3
 1083630:	1009883a 	mov	r4,r2
 1083634:	10888200 	call	1088820 <__fixsfsi>
 1083638:	d0a74c15 	stw	r2,-25296(gp)
			if(count>500){count_times=1;count=0;}
 108363c:	d0a74c17 	ldw	r2,-25296(gp)
 1083640:	10807d50 	cmplti	r2,r2,501
 1083644:	1001381e 	bne	r2,zero,1083b28 <_Z8set_parav+0x6a4>
 1083648:	00800044 	movi	r2,1
 108364c:	d0a74b15 	stw	r2,-25300(gp)
 1083650:	d0274c15 	stw	zero,-25296(gp)
		demo_left=0;
		demo_right=0;
		count=0;
		count_times=0;
	}
}
 1083654:	00013406 	br	1083b28 <_Z8set_parav+0x6a4>
			Movement=-30;
			demo_left=40;
			demo_right=-40;
			count+=Gyro_Turn/1000;
			if(count>500){count_times=1;count=0;}
		}else if(count_times==1){
 1083658:	d0a74b17 	ldw	r2,-25300(gp)
 108365c:	10800058 	cmpnei	r2,r2,1
 1083660:	10001f1e 	bne	r2,zero,10836e0 <_Z8set_parav+0x25c>
			Movement=-30;
 1083664:	00bff884 	movi	r2,-30
 1083668:	d0a73f15 	stw	r2,-25348(gp)
			demo_left=-40;
 108366c:	00bff604 	movi	r2,-40
 1083670:	d0a73d15 	stw	r2,-25356(gp)
			demo_right=40;
 1083674:	00800a04 	movi	r2,40
 1083678:	d0a73e15 	stw	r2,-25352(gp)
			count+=Gyro_Turn/1000;
 108367c:	d0a74c17 	ldw	r2,-25296(gp)
 1083680:	1009883a 	mov	r4,r2
 1083684:	10888900 	call	1088890 <__floatsisf>
 1083688:	1021883a 	mov	r16,r2
 108368c:	d0a73917 	ldw	r2,-25372(gp)
 1083690:	01511eb4 	movhi	r5,17530
 1083694:	1009883a 	mov	r4,r2
 1083698:	10879040 	call	1087904 <__divsf3>
 108369c:	1007883a 	mov	r3,r2
 10836a0:	1805883a 	mov	r2,r3
 10836a4:	100b883a 	mov	r5,r2
 10836a8:	8009883a 	mov	r4,r16
 10836ac:	108743c0 	call	108743c <__addsf3>
 10836b0:	1007883a 	mov	r3,r2
 10836b4:	1805883a 	mov	r2,r3
 10836b8:	1009883a 	mov	r4,r2
 10836bc:	10888200 	call	1088820 <__fixsfsi>
 10836c0:	d0a74c15 	stw	r2,-25296(gp)
			if(count<-500){
 10836c4:	d0a74c17 	ldw	r2,-25296(gp)
 10836c8:	10bf8308 	cmpgei	r2,r2,-500
 10836cc:	1001161e 	bne	r2,zero,1083b28 <_Z8set_parav+0x6a4>
				count_times=2;
 10836d0:	00800084 	movi	r2,2
 10836d4:	d0a74b15 	stw	r2,-25300(gp)
				count=0;
 10836d8:	d0274c15 	stw	zero,-25296(gp)
		demo_left=0;
		demo_right=0;
		count=0;
		count_times=0;
	}
}
 10836dc:	00011206 	br	1083b28 <_Z8set_parav+0x6a4>
			count+=Gyro_Turn/1000;
			if(count<-500){
				count_times=2;
				count=0;
			};
		}else if(count_times==2){
 10836e0:	d0a74b17 	ldw	r2,-25300(gp)
 10836e4:	10800098 	cmpnei	r2,r2,2
 10836e8:	1000151e 	bne	r2,zero,1083740 <_Z8set_parav+0x2bc>
			Movement=-40;
 10836ec:	00bff604 	movi	r2,-40
 10836f0:	d0a73f15 	stw	r2,-25348(gp)
			demo_left=0;
 10836f4:	d0273d15 	stw	zero,-25356(gp)
			demo_right=0;
 10836f8:	d0273e15 	stw	zero,-25352(gp)
			count++;
 10836fc:	d0a74c17 	ldw	r2,-25296(gp)
 1083700:	10800044 	addi	r2,r2,1
 1083704:	d0a74c15 	stw	r2,-25296(gp)
			if(env){count_times=3;count=0;}
 1083708:	d0a00d03 	ldbu	r2,-32716(gp)
 108370c:	10803fcc 	andi	r2,r2,255
 1083710:	10000426 	beq	r2,zero,1083724 <_Z8set_parav+0x2a0>
 1083714:	008000c4 	movi	r2,3
 1083718:	d0a74b15 	stw	r2,-25300(gp)
 108371c:	d0274c15 	stw	zero,-25296(gp)
		demo_left=0;
		demo_right=0;
		count=0;
		count_times=0;
	}
}
 1083720:	00010106 	br	1083b28 <_Z8set_parav+0x6a4>
			Movement=-40;
			demo_left=0;
			demo_right=0;
			count++;
			if(env){count_times=3;count=0;}
			else if(count==150){count_times=3;count=0;}
 1083724:	d0a74c17 	ldw	r2,-25296(gp)
 1083728:	10802598 	cmpnei	r2,r2,150
 108372c:	1000fe1e 	bne	r2,zero,1083b28 <_Z8set_parav+0x6a4>
 1083730:	008000c4 	movi	r2,3
 1083734:	d0a74b15 	stw	r2,-25300(gp)
 1083738:	d0274c15 	stw	zero,-25296(gp)
		demo_left=0;
		demo_right=0;
		count=0;
		count_times=0;
	}
}
 108373c:	0000fa06 	br	1083b28 <_Z8set_parav+0x6a4>
			demo_left=0;
			demo_right=0;
			count++;
			if(env){count_times=3;count=0;}
			else if(count==150){count_times=3;count=0;}
		}else if(count_times==3){
 1083740:	d0a74b17 	ldw	r2,-25300(gp)
 1083744:	108000d8 	cmpnei	r2,r2,3
 1083748:	10001b1e 	bne	r2,zero,10837b8 <_Z8set_parav+0x334>
			Movement=0;
 108374c:	d0273f15 	stw	zero,-25348(gp)
			demo_left=0;
 1083750:	d0273d15 	stw	zero,-25356(gp)
			demo_right=0;
 1083754:	d0273e15 	stw	zero,-25352(gp)
			if(abs(Car.Measure_L)+abs(Car.Measure_R)<10){count_times=4;count=0;}
 1083758:	008042b4 	movhi	r2,266
 108375c:	1081cb04 	addi	r2,r2,1836
 1083760:	10800a8b 	ldhu	r2,42(r2)
 1083764:	10bfffcc 	andi	r2,r2,65535
 1083768:	10a0001c 	xori	r2,r2,32768
 108376c:	10a00004 	addi	r2,r2,-32768
 1083770:	1000010e 	bge	r2,zero,1083778 <_Z8set_parav+0x2f4>
 1083774:	0085c83a 	sub	r2,zero,r2
 1083778:	1007883a 	mov	r3,r2
 108377c:	008042b4 	movhi	r2,266
 1083780:	1081cb04 	addi	r2,r2,1836
 1083784:	10800b0b 	ldhu	r2,44(r2)
 1083788:	10bfffcc 	andi	r2,r2,65535
 108378c:	10a0001c 	xori	r2,r2,32768
 1083790:	10a00004 	addi	r2,r2,-32768
 1083794:	1000010e 	bge	r2,zero,108379c <_Z8set_parav+0x318>
 1083798:	0085c83a 	sub	r2,zero,r2
 108379c:	1885883a 	add	r2,r3,r2
 10837a0:	10800288 	cmpgei	r2,r2,10
 10837a4:	1000e01e 	bne	r2,zero,1083b28 <_Z8set_parav+0x6a4>
 10837a8:	00800104 	movi	r2,4
 10837ac:	d0a74b15 	stw	r2,-25300(gp)
 10837b0:	d0274c15 	stw	zero,-25296(gp)
		demo_left=0;
		demo_right=0;
		count=0;
		count_times=0;
	}
}
 10837b4:	0000dc06 	br	1083b28 <_Z8set_parav+0x6a4>
			Movement=0;
			demo_left=0;
			demo_right=0;
			if(abs(Car.Measure_L)+abs(Car.Measure_R)<10){count_times=4;count=0;}
		}
		else if(count_times==4)
 10837b8:	d0a74b17 	ldw	r2,-25300(gp)
 10837bc:	10800118 	cmpnei	r2,r2,4
 10837c0:	10001f1e 	bne	r2,zero,1083840 <_Z8set_parav+0x3bc>
		{
			Movement=-30;
 10837c4:	00bff884 	movi	r2,-30
 10837c8:	d0a73f15 	stw	r2,-25348(gp)
			demo_left=40;
 10837cc:	00800a04 	movi	r2,40
 10837d0:	d0a73d15 	stw	r2,-25356(gp)
			demo_right=-40;
 10837d4:	00bff604 	movi	r2,-40
 10837d8:	d0a73e15 	stw	r2,-25352(gp)
			count+=Gyro_Turn/1000;
 10837dc:	d0a74c17 	ldw	r2,-25296(gp)
 10837e0:	1009883a 	mov	r4,r2
 10837e4:	10888900 	call	1088890 <__floatsisf>
 10837e8:	1021883a 	mov	r16,r2
 10837ec:	d0a73917 	ldw	r2,-25372(gp)
 10837f0:	01511eb4 	movhi	r5,17530
 10837f4:	1009883a 	mov	r4,r2
 10837f8:	10879040 	call	1087904 <__divsf3>
 10837fc:	1007883a 	mov	r3,r2
 1083800:	1805883a 	mov	r2,r3
 1083804:	100b883a 	mov	r5,r2
 1083808:	8009883a 	mov	r4,r16
 108380c:	108743c0 	call	108743c <__addsf3>
 1083810:	1007883a 	mov	r3,r2
 1083814:	1805883a 	mov	r2,r3
 1083818:	1009883a 	mov	r4,r2
 108381c:	10888200 	call	1088820 <__fixsfsi>
 1083820:	d0a74c15 	stw	r2,-25296(gp)
			if(count>500){count_times=5;count=0;}
 1083824:	d0a74c17 	ldw	r2,-25296(gp)
 1083828:	10807d50 	cmplti	r2,r2,501
 108382c:	1000be1e 	bne	r2,zero,1083b28 <_Z8set_parav+0x6a4>
 1083830:	00800144 	movi	r2,5
 1083834:	d0a74b15 	stw	r2,-25300(gp)
 1083838:	d0274c15 	stw	zero,-25296(gp)
		demo_left=0;
		demo_right=0;
		count=0;
		count_times=0;
	}
}
 108383c:	0000ba06 	br	1083b28 <_Z8set_parav+0x6a4>
			Movement=-30;
			demo_left=40;
			demo_right=-40;
			count+=Gyro_Turn/1000;
			if(count>500){count_times=5;count=0;}
		}else if(count_times==5){
 1083840:	d0a74b17 	ldw	r2,-25300(gp)
 1083844:	10800158 	cmpnei	r2,r2,5
 1083848:	10001f1e 	bne	r2,zero,10838c8 <_Z8set_parav+0x444>
			Movement=-30;
 108384c:	00bff884 	movi	r2,-30
 1083850:	d0a73f15 	stw	r2,-25348(gp)
			demo_left=-40;
 1083854:	00bff604 	movi	r2,-40
 1083858:	d0a73d15 	stw	r2,-25356(gp)
			demo_right=40;
 108385c:	00800a04 	movi	r2,40
 1083860:	d0a73e15 	stw	r2,-25352(gp)
			count+=Gyro_Turn/1000;
 1083864:	d0a74c17 	ldw	r2,-25296(gp)
 1083868:	1009883a 	mov	r4,r2
 108386c:	10888900 	call	1088890 <__floatsisf>
 1083870:	1021883a 	mov	r16,r2
 1083874:	d0a73917 	ldw	r2,-25372(gp)
 1083878:	01511eb4 	movhi	r5,17530
 108387c:	1009883a 	mov	r4,r2
 1083880:	10879040 	call	1087904 <__divsf3>
 1083884:	1007883a 	mov	r3,r2
 1083888:	1805883a 	mov	r2,r3
 108388c:	100b883a 	mov	r5,r2
 1083890:	8009883a 	mov	r4,r16
 1083894:	108743c0 	call	108743c <__addsf3>
 1083898:	1007883a 	mov	r3,r2
 108389c:	1805883a 	mov	r2,r3
 10838a0:	1009883a 	mov	r4,r2
 10838a4:	10888200 	call	1088820 <__fixsfsi>
 10838a8:	d0a74c15 	stw	r2,-25296(gp)
			if(count<-500){count_times=6;count=0;};
 10838ac:	d0a74c17 	ldw	r2,-25296(gp)
 10838b0:	10bf8308 	cmpgei	r2,r2,-500
 10838b4:	10009c1e 	bne	r2,zero,1083b28 <_Z8set_parav+0x6a4>
 10838b8:	00800184 	movi	r2,6
 10838bc:	d0a74b15 	stw	r2,-25300(gp)
 10838c0:	d0274c15 	stw	zero,-25296(gp)
		demo_left=0;
		demo_right=0;
		count=0;
		count_times=0;
	}
}
 10838c4:	00009806 	br	1083b28 <_Z8set_parav+0x6a4>
			demo_left=-40;
			demo_right=40;
			count+=Gyro_Turn/1000;
			if(count<-500){count_times=6;count=0;};

		}else if(count_times==6){
 10838c8:	d0a74b17 	ldw	r2,-25300(gp)
 10838cc:	10800198 	cmpnei	r2,r2,6
 10838d0:	1000151e 	bne	r2,zero,1083928 <_Z8set_parav+0x4a4>
			Movement=100;
 10838d4:	00801904 	movi	r2,100
 10838d8:	d0a73f15 	stw	r2,-25348(gp)
			demo_left=0;
 10838dc:	d0273d15 	stw	zero,-25356(gp)
			demo_right=0;
 10838e0:	d0273e15 	stw	zero,-25352(gp)
			count++;
 10838e4:	d0a74c17 	ldw	r2,-25296(gp)
 10838e8:	10800044 	addi	r2,r2,1
 10838ec:	d0a74c15 	stw	r2,-25296(gp)
			if(env){count_times=7;count=0;}
 10838f0:	d0a00d03 	ldbu	r2,-32716(gp)
 10838f4:	10803fcc 	andi	r2,r2,255
 10838f8:	10000426 	beq	r2,zero,108390c <_Z8set_parav+0x488>
 10838fc:	008001c4 	movi	r2,7
 1083900:	d0a74b15 	stw	r2,-25300(gp)
 1083904:	d0274c15 	stw	zero,-25296(gp)
		demo_left=0;
		demo_right=0;
		count=0;
		count_times=0;
	}
}
 1083908:	00008706 	br	1083b28 <_Z8set_parav+0x6a4>
			Movement=100;
			demo_left=0;
			demo_right=0;
			count++;
			if(env){count_times=7;count=0;}
			else if(count==150){count_times=7;count=0;}
 108390c:	d0a74c17 	ldw	r2,-25296(gp)
 1083910:	10802598 	cmpnei	r2,r2,150
 1083914:	1000841e 	bne	r2,zero,1083b28 <_Z8set_parav+0x6a4>
 1083918:	008001c4 	movi	r2,7
 108391c:	d0a74b15 	stw	r2,-25300(gp)
 1083920:	d0274c15 	stw	zero,-25296(gp)
		demo_left=0;
		demo_right=0;
		count=0;
		count_times=0;
	}
}
 1083924:	00008006 	br	1083b28 <_Z8set_parav+0x6a4>
			demo_left=0;
			demo_right=0;
			count++;
			if(env){count_times=7;count=0;}
			else if(count==150){count_times=7;count=0;}
		}else if(count_times==7){
 1083928:	d0a74b17 	ldw	r2,-25300(gp)
 108392c:	108001d8 	cmpnei	r2,r2,7
 1083930:	10001b1e 	bne	r2,zero,10839a0 <_Z8set_parav+0x51c>
			Movement=0;
 1083934:	d0273f15 	stw	zero,-25348(gp)
			demo_left=0;
 1083938:	d0273d15 	stw	zero,-25356(gp)
			demo_right=0;
 108393c:	d0273e15 	stw	zero,-25352(gp)
			if(abs(Car.Measure_L)+abs(Car.Measure_R)<10){count_times=8;count=0;}
 1083940:	008042b4 	movhi	r2,266
 1083944:	1081cb04 	addi	r2,r2,1836
 1083948:	10800a8b 	ldhu	r2,42(r2)
 108394c:	10bfffcc 	andi	r2,r2,65535
 1083950:	10a0001c 	xori	r2,r2,32768
 1083954:	10a00004 	addi	r2,r2,-32768
 1083958:	1000010e 	bge	r2,zero,1083960 <_Z8set_parav+0x4dc>
 108395c:	0085c83a 	sub	r2,zero,r2
 1083960:	1007883a 	mov	r3,r2
 1083964:	008042b4 	movhi	r2,266
 1083968:	1081cb04 	addi	r2,r2,1836
 108396c:	10800b0b 	ldhu	r2,44(r2)
 1083970:	10bfffcc 	andi	r2,r2,65535
 1083974:	10a0001c 	xori	r2,r2,32768
 1083978:	10a00004 	addi	r2,r2,-32768
 108397c:	1000010e 	bge	r2,zero,1083984 <_Z8set_parav+0x500>
 1083980:	0085c83a 	sub	r2,zero,r2
 1083984:	1885883a 	add	r2,r3,r2
 1083988:	10800288 	cmpgei	r2,r2,10
 108398c:	1000661e 	bne	r2,zero,1083b28 <_Z8set_parav+0x6a4>
 1083990:	00800204 	movi	r2,8
 1083994:	d0a74b15 	stw	r2,-25300(gp)
 1083998:	d0274c15 	stw	zero,-25296(gp)
		demo_left=0;
		demo_right=0;
		count=0;
		count_times=0;
	}
}
 108399c:	00006206 	br	1083b28 <_Z8set_parav+0x6a4>
			Movement=0;
			demo_left=0;
			demo_right=0;
			if(abs(Car.Measure_L)+abs(Car.Measure_R)<10){count_times=8;count=0;}
		}
		else if(count_times==8)
 10839a0:	d0a74b17 	ldw	r2,-25300(gp)
 10839a4:	10800218 	cmpnei	r2,r2,8
 10839a8:	10000e1e 	bne	r2,zero,10839e4 <_Z8set_parav+0x560>
		{
			demo_left=100;
 10839ac:	00801904 	movi	r2,100
 10839b0:	d0a73d15 	stw	r2,-25356(gp)
			demo_right=-100;
 10839b4:	00bfe704 	movi	r2,-100
 10839b8:	d0a73e15 	stw	r2,-25352(gp)
			count++;
 10839bc:	d0a74c17 	ldw	r2,-25296(gp)
 10839c0:	10800044 	addi	r2,r2,1
 10839c4:	d0a74c15 	stw	r2,-25296(gp)
			if(count==200){count_times=9;count=0;}
 10839c8:	d0a74c17 	ldw	r2,-25296(gp)
 10839cc:	10803218 	cmpnei	r2,r2,200
 10839d0:	1000551e 	bne	r2,zero,1083b28 <_Z8set_parav+0x6a4>
 10839d4:	00800244 	movi	r2,9
 10839d8:	d0a74b15 	stw	r2,-25300(gp)
 10839dc:	d0274c15 	stw	zero,-25296(gp)
		demo_left=0;
		demo_right=0;
		count=0;
		count_times=0;
	}
}
 10839e0:	00005106 	br	1083b28 <_Z8set_parav+0x6a4>
		{
			demo_left=100;
			demo_right=-100;
			count++;
			if(count==200){count_times=9;count=0;}
		}else if(count_times==9)
 10839e4:	d0a74b17 	ldw	r2,-25300(gp)
 10839e8:	10800258 	cmpnei	r2,r2,9
 10839ec:	10000e1e 	bne	r2,zero,1083a28 <_Z8set_parav+0x5a4>
		{
			demo_left=-100;
 10839f0:	00bfe704 	movi	r2,-100
 10839f4:	d0a73d15 	stw	r2,-25356(gp)
			demo_right=100;
 10839f8:	00801904 	movi	r2,100
 10839fc:	d0a73e15 	stw	r2,-25352(gp)
			count++;
 1083a00:	d0a74c17 	ldw	r2,-25296(gp)
 1083a04:	10800044 	addi	r2,r2,1
 1083a08:	d0a74c15 	stw	r2,-25296(gp)
			if(count==180){count_times=10;count=0;}
 1083a0c:	d0a74c17 	ldw	r2,-25296(gp)
 1083a10:	10802d18 	cmpnei	r2,r2,180
 1083a14:	1000441e 	bne	r2,zero,1083b28 <_Z8set_parav+0x6a4>
 1083a18:	00800284 	movi	r2,10
 1083a1c:	d0a74b15 	stw	r2,-25300(gp)
 1083a20:	d0274c15 	stw	zero,-25296(gp)
		demo_left=0;
		demo_right=0;
		count=0;
		count_times=0;
	}
}
 1083a24:	00004006 	br	1083b28 <_Z8set_parav+0x6a4>
		{
			demo_left=-100;
			demo_right=100;
			count++;
			if(count==180){count_times=10;count=0;}
		}else if(count_times==10){
 1083a28:	d0a74b17 	ldw	r2,-25300(gp)
 1083a2c:	10800298 	cmpnei	r2,r2,10
 1083a30:	10001b1e 	bne	r2,zero,1083aa0 <_Z8set_parav+0x61c>
			Movement=0;
 1083a34:	d0273f15 	stw	zero,-25348(gp)
			demo_left=0;
 1083a38:	d0273d15 	stw	zero,-25356(gp)
			demo_right=0;
 1083a3c:	d0273e15 	stw	zero,-25352(gp)
			if(abs(Car.Measure_L)+abs(Car.Measure_R)<10){count_times=11;count=0;}
 1083a40:	008042b4 	movhi	r2,266
 1083a44:	1081cb04 	addi	r2,r2,1836
 1083a48:	10800a8b 	ldhu	r2,42(r2)
 1083a4c:	10bfffcc 	andi	r2,r2,65535
 1083a50:	10a0001c 	xori	r2,r2,32768
 1083a54:	10a00004 	addi	r2,r2,-32768
 1083a58:	1000010e 	bge	r2,zero,1083a60 <_Z8set_parav+0x5dc>
 1083a5c:	0085c83a 	sub	r2,zero,r2
 1083a60:	1007883a 	mov	r3,r2
 1083a64:	008042b4 	movhi	r2,266
 1083a68:	1081cb04 	addi	r2,r2,1836
 1083a6c:	10800b0b 	ldhu	r2,44(r2)
 1083a70:	10bfffcc 	andi	r2,r2,65535
 1083a74:	10a0001c 	xori	r2,r2,32768
 1083a78:	10a00004 	addi	r2,r2,-32768
 1083a7c:	1000010e 	bge	r2,zero,1083a84 <_Z8set_parav+0x600>
 1083a80:	0085c83a 	sub	r2,zero,r2
 1083a84:	1885883a 	add	r2,r3,r2
 1083a88:	10800288 	cmpgei	r2,r2,10
 1083a8c:	1000261e 	bne	r2,zero,1083b28 <_Z8set_parav+0x6a4>
 1083a90:	008002c4 	movi	r2,11
 1083a94:	d0a74b15 	stw	r2,-25300(gp)
 1083a98:	d0274c15 	stw	zero,-25296(gp)
		demo_left=0;
		demo_right=0;
		count=0;
		count_times=0;
	}
}
 1083a9c:	00002206 	br	1083b28 <_Z8set_parav+0x6a4>
			Movement=0;
			demo_left=0;
			demo_right=0;
			if(abs(Car.Measure_L)+abs(Car.Measure_R)<10){count_times=11;count=0;}
		}
		else if(count_times==11){
 1083aa0:	d0a74b17 	ldw	r2,-25300(gp)
 1083aa4:	108002d8 	cmpnei	r2,r2,11
 1083aa8:	1000151e 	bne	r2,zero,1083b00 <_Z8set_parav+0x67c>
			Movement=-100;
 1083aac:	00bfe704 	movi	r2,-100
 1083ab0:	d0a73f15 	stw	r2,-25348(gp)
			demo_left=0;
 1083ab4:	d0273d15 	stw	zero,-25356(gp)
			demo_right=0;
 1083ab8:	d0273e15 	stw	zero,-25352(gp)
			count++;
 1083abc:	d0a74c17 	ldw	r2,-25296(gp)
 1083ac0:	10800044 	addi	r2,r2,1
 1083ac4:	d0a74c15 	stw	r2,-25296(gp)
			if(env){count_times=12;count=0;}
 1083ac8:	d0a00d03 	ldbu	r2,-32716(gp)
 1083acc:	10803fcc 	andi	r2,r2,255
 1083ad0:	10000426 	beq	r2,zero,1083ae4 <_Z8set_parav+0x660>
 1083ad4:	00800304 	movi	r2,12
 1083ad8:	d0a74b15 	stw	r2,-25300(gp)
 1083adc:	d0274c15 	stw	zero,-25296(gp)
		demo_left=0;
		demo_right=0;
		count=0;
		count_times=0;
	}
}
 1083ae0:	00001106 	br	1083b28 <_Z8set_parav+0x6a4>
			Movement=-100;
			demo_left=0;
			demo_right=0;
			count++;
			if(env){count_times=12;count=0;}
			else if(count==150){count_times=12;count=0;}
 1083ae4:	d0a74c17 	ldw	r2,-25296(gp)
 1083ae8:	10802598 	cmpnei	r2,r2,150
 1083aec:	10000e1e 	bne	r2,zero,1083b28 <_Z8set_parav+0x6a4>
 1083af0:	00800304 	movi	r2,12
 1083af4:	d0a74b15 	stw	r2,-25300(gp)
 1083af8:	d0274c15 	stw	zero,-25296(gp)
		demo_left=0;
		demo_right=0;
		count=0;
		count_times=0;
	}
}
 1083afc:	00000a06 	br	1083b28 <_Z8set_parav+0x6a4>
			demo_right=0;
			count++;
			if(env){count_times=12;count=0;}
			else if(count==150){count_times=12;count=0;}
		}else{
			demo_left=0;
 1083b00:	d0273d15 	stw	zero,-25356(gp)
			demo_right=0;
 1083b04:	d0273e15 	stw	zero,-25352(gp)
			count_times=0;
 1083b08:	d0274b15 	stw	zero,-25300(gp)
			led3=0x00;
 1083b0c:	d0274605 	stb	zero,-25320(gp)
			demo=false;
 1083b10:	d0274445 	stb	zero,-25327(gp)
		demo_left=0;
		demo_right=0;
		count=0;
		count_times=0;
	}
}
 1083b14:	00000406 	br	1083b28 <_Z8set_parav+0x6a4>
			led3=0x00;
			demo=false;
		}

	}else {
		demo_left=0;
 1083b18:	d0273d15 	stw	zero,-25356(gp)
		demo_right=0;
 1083b1c:	d0273e15 	stw	zero,-25352(gp)
		count=0;
 1083b20:	d0274c15 	stw	zero,-25296(gp)
		count_times=0;
 1083b24:	d0274b15 	stw	zero,-25300(gp)
	}
}
 1083b28:	0001883a 	nop
 1083b2c:	e6ffff04 	addi	sp,fp,-4
 1083b30:	dfc00217 	ldw	ra,8(sp)
 1083b34:	df000117 	ldw	fp,4(sp)
 1083b38:	dc000017 	ldw	r16,0(sp)
 1083b3c:	dec00304 	addi	sp,sp,12
 1083b40:	f800283a 	ret

01083b44 <_Z7balanceff>:
Function     : Upright Closed-loop Control (PD)
parameter    : The Angle valueThe angular velocity value
return value : Upright Closed-loop Control PWM
**************************************************************************/
int balance(float Angle,float Gyro)
 {
 1083b44:	defff704 	addi	sp,sp,-36
 1083b48:	dfc00815 	stw	ra,32(sp)
 1083b4c:	df000715 	stw	fp,28(sp)
 1083b50:	dc000615 	stw	r16,24(sp)
 1083b54:	df000704 	addi	fp,sp,28
 1083b58:	e13ffd15 	stw	r4,-12(fp)
 1083b5c:	e17ffe15 	stw	r5,-8(fp)
	 float Bias,kp=11.0,kd=0.02;
 1083b60:	00904c34 	movhi	r2,16688
 1083b64:	e0bff915 	stw	r2,-28(fp)
 1083b68:	008f2934 	movhi	r2,15524
 1083b6c:	10b5c284 	addi	r2,r2,-10486
 1083b70:	e0bffa15 	stw	r2,-24(fp)
 	 int balance;
 	 Bias=Angle-1;
 1083b74:	014fe034 	movhi	r5,16256
 1083b78:	e13ffd17 	ldw	r4,-12(fp)
 1083b7c:	108833c0 	call	108833c <__subsf3>
 1083b80:	1007883a 	mov	r3,r2
 1083b84:	e0fffb15 	stw	r3,-20(fp)
 	 balance=kp*Bias+Gyro*kd;
 1083b88:	e17ffb17 	ldw	r5,-20(fp)
 1083b8c:	e13ff917 	ldw	r4,-28(fp)
 1083b90:	1087f400 	call	1087f40 <__mulsf3>
 1083b94:	1007883a 	mov	r3,r2
 1083b98:	1821883a 	mov	r16,r3
 1083b9c:	e17ffa17 	ldw	r5,-24(fp)
 1083ba0:	e13ffe17 	ldw	r4,-8(fp)
 1083ba4:	1087f400 	call	1087f40 <__mulsf3>
 1083ba8:	1007883a 	mov	r3,r2
 1083bac:	1805883a 	mov	r2,r3
 1083bb0:	100b883a 	mov	r5,r2
 1083bb4:	8009883a 	mov	r4,r16
 1083bb8:	108743c0 	call	108743c <__addsf3>
 1083bbc:	1007883a 	mov	r3,r2
 1083bc0:	1805883a 	mov	r2,r3
 1083bc4:	1009883a 	mov	r4,r2
 1083bc8:	10888200 	call	1088820 <__fixsfsi>
 1083bcc:	e0bffc15 	stw	r2,-16(fp)
 	// printf("balance=%d\n",balance);
 	 return balance;
 1083bd0:	e0bffc17 	ldw	r2,-16(fp)
 }
 1083bd4:	e6ffff04 	addi	sp,fp,-4
 1083bd8:	dfc00217 	ldw	ra,8(sp)
 1083bdc:	df000117 	ldw	fp,4(sp)
 1083be0:	dc000017 	ldw	r16,0(sp)
 1083be4:	dec00304 	addi	sp,sp,12
 1083be8:	f800283a 	ret

01083bec <_Z5speedv>:
Function     : Speed Closed-loop Control (PI)
parameter    : The encoder values of the wheelthe
return value : Speed Closed-loop Control PWM
**************************************************************************/
int speed(void)
 {
 1083bec:	defffa04 	addi	sp,sp,-24
 1083bf0:	dfc00515 	stw	ra,20(sp)
 1083bf4:	df000415 	stw	fp,16(sp)
 1083bf8:	dc400315 	stw	r17,12(sp)
 1083bfc:	dc000215 	stw	r16,8(sp)
 1083c00:	df000404 	addi	fp,sp,16
     static float Speed,Encoder_Least,Encoder;
 	 static float Encoder_Integral;
 	 float kp=2.2,ki=0.05;
 1083c04:	00900374 	movhi	r2,16397
 1083c08:	10b33344 	addi	r2,r2,-13107
 1083c0c:	e0bffc15 	stw	r2,-16(fp)
 1083c10:	008f5374 	movhi	r2,15693
 1083c14:	10b33344 	addi	r2,r2,-13107
 1083c18:	e0bffd15 	stw	r2,-12(fp)
  	 Encoder_Least =(-Car.Measure_L+Car.Measure_R)-0;
 1083c1c:	008042b4 	movhi	r2,266
 1083c20:	1081cb04 	addi	r2,r2,1836
 1083c24:	10800b0b 	ldhu	r2,44(r2)
 1083c28:	10ffffcc 	andi	r3,r2,65535
 1083c2c:	18e0001c 	xori	r3,r3,32768
 1083c30:	18e00004 	addi	r3,r3,-32768
 1083c34:	008042b4 	movhi	r2,266
 1083c38:	1081cb04 	addi	r2,r2,1836
 1083c3c:	10800a8b 	ldhu	r2,42(r2)
 1083c40:	10bfffcc 	andi	r2,r2,65535
 1083c44:	10a0001c 	xori	r2,r2,32768
 1083c48:	10a00004 	addi	r2,r2,-32768
 1083c4c:	1885c83a 	sub	r2,r3,r2
 1083c50:	1009883a 	mov	r4,r2
 1083c54:	10888900 	call	1088890 <__floatsisf>
 1083c58:	1007883a 	mov	r3,r2
 1083c5c:	d0e74d15 	stw	r3,-25292(gp)
  	 Encoder *= 0.8;
 1083c60:	d0a74e17 	ldw	r2,-25288(gp)
 1083c64:	1009883a 	mov	r4,r2
 1083c68:	108ae840 	call	108ae84 <__extendsfdf2>
 1083c6c:	1011883a 	mov	r8,r2
 1083c70:	1813883a 	mov	r9,r3
 1083c74:	01a666b4 	movhi	r6,39322
 1083c78:	31a66684 	addi	r6,r6,-26214
 1083c7c:	01cffab4 	movhi	r7,16362
 1083c80:	39e66644 	addi	r7,r7,-26215
 1083c84:	4009883a 	mov	r4,r8
 1083c88:	480b883a 	mov	r5,r9
 1083c8c:	1089d140 	call	1089d14 <__muldf3>
 1083c90:	1009883a 	mov	r4,r2
 1083c94:	180b883a 	mov	r5,r3
 1083c98:	2005883a 	mov	r2,r4
 1083c9c:	2807883a 	mov	r3,r5
 1083ca0:	1009883a 	mov	r4,r2
 1083ca4:	180b883a 	mov	r5,r3
 1083ca8:	108af940 	call	108af94 <__truncdfsf2>
 1083cac:	1007883a 	mov	r3,r2
 1083cb0:	d0e74e15 	stw	r3,-25288(gp)
  	 Encoder += Encoder_Least*0.2;
 1083cb4:	d0a74e17 	ldw	r2,-25288(gp)
 1083cb8:	1009883a 	mov	r4,r2
 1083cbc:	108ae840 	call	108ae84 <__extendsfdf2>
 1083cc0:	1021883a 	mov	r16,r2
 1083cc4:	1823883a 	mov	r17,r3
 1083cc8:	d0a74d17 	ldw	r2,-25292(gp)
 1083ccc:	1009883a 	mov	r4,r2
 1083cd0:	108ae840 	call	108ae84 <__extendsfdf2>
 1083cd4:	1011883a 	mov	r8,r2
 1083cd8:	1813883a 	mov	r9,r3
 1083cdc:	01a666b4 	movhi	r6,39322
 1083ce0:	31a66684 	addi	r6,r6,-26214
 1083ce4:	01cff2b4 	movhi	r7,16330
 1083ce8:	39e66644 	addi	r7,r7,-26215
 1083cec:	4009883a 	mov	r4,r8
 1083cf0:	480b883a 	mov	r5,r9
 1083cf4:	1089d140 	call	1089d14 <__muldf3>
 1083cf8:	1009883a 	mov	r4,r2
 1083cfc:	180b883a 	mov	r5,r3
 1083d00:	2005883a 	mov	r2,r4
 1083d04:	2807883a 	mov	r3,r5
 1083d08:	100d883a 	mov	r6,r2
 1083d0c:	180f883a 	mov	r7,r3
 1083d10:	8009883a 	mov	r4,r16
 1083d14:	880b883a 	mov	r5,r17
 1083d18:	1088aa40 	call	1088aa4 <__adddf3>
 1083d1c:	1009883a 	mov	r4,r2
 1083d20:	180b883a 	mov	r5,r3
 1083d24:	2005883a 	mov	r2,r4
 1083d28:	2807883a 	mov	r3,r5
 1083d2c:	1009883a 	mov	r4,r2
 1083d30:	180b883a 	mov	r5,r3
 1083d34:	108af940 	call	108af94 <__truncdfsf2>
 1083d38:	1007883a 	mov	r3,r2
 1083d3c:	d0e74e15 	stw	r3,-25288(gp)
  	 Encoder_Integral +=Encoder;
 1083d40:	d0a74f17 	ldw	r2,-25284(gp)
 1083d44:	d0e74e17 	ldw	r3,-25288(gp)
 1083d48:	180b883a 	mov	r5,r3
 1083d4c:	1009883a 	mov	r4,r2
 1083d50:	108743c0 	call	108743c <__addsf3>
 1083d54:	1007883a 	mov	r3,r2
 1083d58:	1805883a 	mov	r2,r3
 1083d5c:	d0a74f15 	stw	r2,-25284(gp)
  	 Encoder_Integral=Encoder_Integral-Movement;
 1083d60:	d4274f17 	ldw	r16,-25284(gp)
 1083d64:	d0a73f17 	ldw	r2,-25348(gp)
 1083d68:	1009883a 	mov	r4,r2
 1083d6c:	10888900 	call	1088890 <__floatsisf>
 1083d70:	1007883a 	mov	r3,r2
 1083d74:	180b883a 	mov	r5,r3
 1083d78:	8009883a 	mov	r4,r16
 1083d7c:	108833c0 	call	108833c <__subsf3>
 1083d80:	1007883a 	mov	r3,r2
 1083d84:	1805883a 	mov	r2,r3
 1083d88:	d0a74f15 	stw	r2,-25284(gp)
  	 if(Encoder_Integral>8000)  	Encoder_Integral=8000;
 1083d8c:	d0a74f17 	ldw	r2,-25284(gp)
 1083d90:	01517eb4 	movhi	r5,17914
 1083d94:	1009883a 	mov	r4,r2
 1083d98:	1087dbc0 	call	1087dbc <__gesf2>
 1083d9c:	0080020e 	bge	zero,r2,1083da8 <_Z5speedv+0x1bc>
 1083da0:	00917eb4 	movhi	r2,17914
 1083da4:	d0a74f15 	stw	r2,-25284(gp)
  	 if(Encoder_Integral<-8000)	Encoder_Integral=-8000;
 1083da8:	d0a74f17 	ldw	r2,-25284(gp)
 1083dac:	01717eb4 	movhi	r5,50682
 1083db0:	1009883a 	mov	r4,r2
 1083db4:	1087e780 	call	1087e78 <__lesf2>
 1083db8:	1000020e 	bge	r2,zero,1083dc4 <_Z5speedv+0x1d8>
 1083dbc:	00b17eb4 	movhi	r2,50682
 1083dc0:	d0a74f15 	stw	r2,-25284(gp)
  	 if(stop_flag)Encoder_Integral=0;
 1083dc4:	d0a74403 	ldbu	r2,-25328(gp)
 1083dc8:	10803fcc 	andi	r2,r2,255
 1083dcc:	10000126 	beq	r2,zero,1083dd4 <_Z5speedv+0x1e8>
 1083dd0:	d0274f15 	stw	zero,-25284(gp)
  	 Speed=Encoder*kp+Encoder_Integral*ki;
 1083dd4:	d0a74e17 	ldw	r2,-25288(gp)
 1083dd8:	e17ffc17 	ldw	r5,-16(fp)
 1083ddc:	1009883a 	mov	r4,r2
 1083de0:	1087f400 	call	1087f40 <__mulsf3>
 1083de4:	1007883a 	mov	r3,r2
 1083de8:	1821883a 	mov	r16,r3
 1083dec:	d0a74f17 	ldw	r2,-25284(gp)
 1083df0:	e17ffd17 	ldw	r5,-12(fp)
 1083df4:	1009883a 	mov	r4,r2
 1083df8:	1087f400 	call	1087f40 <__mulsf3>
 1083dfc:	1007883a 	mov	r3,r2
 1083e00:	1805883a 	mov	r2,r3
 1083e04:	100b883a 	mov	r5,r2
 1083e08:	8009883a 	mov	r4,r16
 1083e0c:	108743c0 	call	108743c <__addsf3>
 1083e10:	1007883a 	mov	r3,r2
 1083e14:	1805883a 	mov	r2,r3
 1083e18:	d0a75015 	stw	r2,-25280(gp)
 	 return Speed;
 1083e1c:	d0a75017 	ldw	r2,-25280(gp)
 1083e20:	1009883a 	mov	r4,r2
 1083e24:	10888200 	call	1088820 <__fixsfsi>
 }
 1083e28:	e6fffe04 	addi	sp,fp,-8
 1083e2c:	dfc00317 	ldw	ra,12(sp)
 1083e30:	df000217 	ldw	fp,8(sp)
 1083e34:	dc400117 	ldw	r17,4(sp)
 1083e38:	dc000017 	ldw	r16,0(sp)
 1083e3c:	dec00404 	addi	sp,sp,16
 1083e40:	f800283a 	ret

01083e44 <_Z4turnf>:
Function     : Turn Closed-loop Control (PD)
parameter    : The Z axis gyroscope value
return value : Turn Closed-loop Control PWM
**************************************************************************/
int turn(float Gyro)
 {
 1083e44:	defff804 	addi	sp,sp,-32
 1083e48:	dfc00715 	stw	ra,28(sp)
 1083e4c:	df000615 	stw	fp,24(sp)
 1083e50:	dc000515 	stw	r16,20(sp)
 1083e54:	df000604 	addi	fp,sp,24
 1083e58:	e13ffe15 	stw	r4,-8(fp)
	 float Bias,kp,kd;
 	 float turn_pwm;
 	 if(demo==true){
 1083e5c:	d0a74443 	ldbu	r2,-25327(gp)
 1083e60:	10803fcc 	andi	r2,r2,255
 1083e64:	10000626 	beq	r2,zero,1083e80 <_Z4turnf+0x3c>
 		kp=1.0;kd=0.02;
 1083e68:	008fe034 	movhi	r2,16256
 1083e6c:	e0bffb15 	stw	r2,-20(fp)
 1083e70:	008f2934 	movhi	r2,15524
 1083e74:	10b5c284 	addi	r2,r2,-10486
 1083e78:	e0bffc15 	stw	r2,-16(fp)
 1083e7c:	00000606 	br	1083e98 <_Z4turnf+0x54>
 	 }else{
 		kp=0.3;kd=0.015;
 1083e80:	008fa6b4 	movhi	r2,16026
 1083e84:	10a66684 	addi	r2,r2,-26214
 1083e88:	e0bffb15 	stw	r2,-20(fp)
 1083e8c:	008f1db4 	movhi	r2,15478
 1083e90:	10b0a3c4 	addi	r2,r2,-15729
 1083e94:	e0bffc15 	stw	r2,-16(fp)
 	 }
 	 Bias=Car.Measure_L+Car.Measure_R;
 1083e98:	008042b4 	movhi	r2,266
 1083e9c:	1081cb04 	addi	r2,r2,1836
 1083ea0:	10800a8b 	ldhu	r2,42(r2)
 1083ea4:	10ffffcc 	andi	r3,r2,65535
 1083ea8:	18e0001c 	xori	r3,r3,32768
 1083eac:	18e00004 	addi	r3,r3,-32768
 1083eb0:	008042b4 	movhi	r2,266
 1083eb4:	1081cb04 	addi	r2,r2,1836
 1083eb8:	10800b0b 	ldhu	r2,44(r2)
 1083ebc:	10bfffcc 	andi	r2,r2,65535
 1083ec0:	10a0001c 	xori	r2,r2,32768
 1083ec4:	10a00004 	addi	r2,r2,-32768
 1083ec8:	1885883a 	add	r2,r3,r2
 1083ecc:	1009883a 	mov	r4,r2
 1083ed0:	10888900 	call	1088890 <__floatsisf>
 1083ed4:	1007883a 	mov	r3,r2
 1083ed8:	e0fffa15 	stw	r3,-24(fp)
 	 if(Car.turn_direction&CAR_TURN_LEFT)
 1083edc:	008042b4 	movhi	r2,266
 1083ee0:	1081cb04 	addi	r2,r2,1836
 1083ee4:	10800bc3 	ldbu	r2,47(r2)
 1083ee8:	10803fcc 	andi	r2,r2,255
 1083eec:	1080004c 	andi	r2,r2,1
 1083ef0:	10000626 	beq	r2,zero,1083f0c <_Z4turnf+0xc8>
 	 	{
 			Bias+=110;
 1083ef4:	0150b734 	movhi	r5,17116
 1083ef8:	e13ffa17 	ldw	r4,-24(fp)
 1083efc:	108743c0 	call	108743c <__addsf3>
 1083f00:	1007883a 	mov	r3,r2
 1083f04:	e0fffa15 	stw	r3,-24(fp)
 1083f08:	00000b06 	br	1083f38 <_Z4turnf+0xf4>
 		}else if(Car.turn_direction&CAR_TURN_RIGHT)
 1083f0c:	008042b4 	movhi	r2,266
 1083f10:	1081cb04 	addi	r2,r2,1836
 1083f14:	10800bc3 	ldbu	r2,47(r2)
 1083f18:	10803fcc 	andi	r2,r2,255
 1083f1c:	1080008c 	andi	r2,r2,2
 1083f20:	10000526 	beq	r2,zero,1083f38 <_Z4turnf+0xf4>
 		{
 			Bias-=110;
 1083f24:	0150b734 	movhi	r5,17116
 1083f28:	e13ffa17 	ldw	r4,-24(fp)
 1083f2c:	108833c0 	call	108833c <__subsf3>
 1083f30:	1007883a 	mov	r3,r2
 1083f34:	e0fffa15 	stw	r3,-24(fp)
 		}
 	 if((led3==0)&&(Angle_Balance<10&&Angle_Balance>-10))
 1083f38:	d0a74603 	ldbu	r2,-25320(gp)
 1083f3c:	10803fcc 	andi	r2,r2,255
 1083f40:	10000c1e 	bne	r2,zero,1083f74 <_Z4turnf+0x130>
 1083f44:	d0a73717 	ldw	r2,-25380(gp)
 1083f48:	01504834 	movhi	r5,16672
 1083f4c:	1009883a 	mov	r4,r2
 1083f50:	1087e780 	call	1087e78 <__lesf2>
 1083f54:	1000070e 	bge	r2,zero,1083f74 <_Z4turnf+0x130>
 1083f58:	d0a73717 	ldw	r2,-25380(gp)
 1083f5c:	01704834 	movhi	r5,49440
 1083f60:	1009883a 	mov	r4,r2
 1083f64:	1087dbc0 	call	1087dbc <__gesf2>
 1083f68:	0080020e 	bge	zero,r2,1083f74 <_Z4turnf+0x130>
 		turn_pwm=0;
 1083f6c:	e03ffd15 	stw	zero,-12(fp)
 1083f70:	00000f06 	br	1083fb0 <_Z4turnf+0x16c>
	 else
		turn_pwm=kp*Bias-kd*Gyro;
 1083f74:	e17ffa17 	ldw	r5,-24(fp)
 1083f78:	e13ffb17 	ldw	r4,-20(fp)
 1083f7c:	1087f400 	call	1087f40 <__mulsf3>
 1083f80:	1007883a 	mov	r3,r2
 1083f84:	1821883a 	mov	r16,r3
 1083f88:	e17ffe17 	ldw	r5,-8(fp)
 1083f8c:	e13ffc17 	ldw	r4,-16(fp)
 1083f90:	1087f400 	call	1087f40 <__mulsf3>
 1083f94:	1007883a 	mov	r3,r2
 1083f98:	1805883a 	mov	r2,r3
 1083f9c:	100b883a 	mov	r5,r2
 1083fa0:	8009883a 	mov	r4,r16
 1083fa4:	108833c0 	call	108833c <__subsf3>
 1083fa8:	1007883a 	mov	r3,r2
 1083fac:	e0fffd15 	stw	r3,-12(fp)
 	 return turn_pwm;
 1083fb0:	e13ffd17 	ldw	r4,-12(fp)
 1083fb4:	10888200 	call	1088820 <__fixsfsi>
 }
 1083fb8:	e6ffff04 	addi	sp,fp,-4
 1083fbc:	dfc00217 	ldw	ra,8(sp)
 1083fc0:	df000117 	ldw	fp,4(sp)
 1083fc4:	dc000017 	ldw	r16,0(sp)
 1083fc8:	dec00304 	addi	sp,sp,12
 1083fcc:	f800283a 	ret

01083fd0 <_Z11MPU_INT_ISRPvm>:
#ifdef ALT_ENHANCED_INTERRUPT_API_PRESENT //nios2 91 edition or later
void MPU_INT_ISR(void *contex)
#else //before nios2 91 edition
void MPU_INT_ISR(void * contex, alt_u32 id)
#endif
{
 1083fd0:	defff904 	addi	sp,sp,-28
 1083fd4:	dfc00615 	stw	ra,24(sp)
 1083fd8:	df000515 	stw	fp,20(sp)
 1083fdc:	dc000415 	stw	r16,16(sp)
 1083fe0:	df000504 	addi	fp,sp,20
 1083fe4:	e13ffd15 	stw	r4,-12(fp)
 1083fe8:	e17ffe15 	stw	r5,-8(fp)
	alt_32 static count=0;
  	int cnt;
  	const int nAdjust=15;
 1083fec:	008003c4 	movi	r2,15
 1083ff0:	e0bffc15 	stw	r2,-16(fp)
	if(!IORD_ALTERA_AVALON_PIO_EDGE_CAP(MPU_INT_BASE)){
 1083ff4:	00804434 	movhi	r2,272
 1083ff8:	10842304 	addi	r2,r2,4236
 1083ffc:	10800037 	ldwio	r2,0(r2)
 1084000:	1005003a 	cmpeq	r2,r2,zero
 1084004:	10803fcc 	andi	r2,r2,255
 1084008:	1000bf1e 	bne	r2,zero,1084308 <_Z11MPU_INT_ISRPvm+0x338>
		return;
	}else
	{
		IOWR_ALTERA_AVALON_PIO_EDGE_CAP(MPU_INT_BASE,0x00);
 108400c:	0007883a 	mov	r3,zero
 1084010:	00804434 	movhi	r2,272
 1084014:	10842304 	addi	r2,r2,4236
 1084018:	10c00035 	stwio	r3,0(r2)
		IOWR_ALTERA_AVALON_PIO_IRQ_MASK(MPU_INT_BASE,0x00);
 108401c:	0007883a 	mov	r3,zero
 1084020:	00804434 	movhi	r2,272
 1084024:	10842204 	addi	r2,r2,4232
 1084028:	10c00035 	stwio	r3,0(r2)
		Get_Angle();
 108402c:	1082d700 	call	1082d70 <_Z9Get_Anglev>
		Car.meaure_speed();
 1084030:	010042b4 	movhi	r4,266
 1084034:	2101cb04 	addi	r4,r4,1836
 1084038:	1080a5c0 	call	1080a5c <_ZN4CCar12meaure_speedEv>
		cnt_ng=abs(Car.Measure_L)+abs(Car.Measure_R);
 108403c:	008042b4 	movhi	r2,266
 1084040:	1081cb04 	addi	r2,r2,1836
 1084044:	10800a8b 	ldhu	r2,42(r2)
 1084048:	10bfffcc 	andi	r2,r2,65535
 108404c:	10a0001c 	xori	r2,r2,32768
 1084050:	10a00004 	addi	r2,r2,-32768
 1084054:	1000010e 	bge	r2,zero,108405c <_Z11MPU_INT_ISRPvm+0x8c>
 1084058:	0085c83a 	sub	r2,zero,r2
 108405c:	1007883a 	mov	r3,r2
 1084060:	008042b4 	movhi	r2,266
 1084064:	1081cb04 	addi	r2,r2,1836
 1084068:	10800b0b 	ldhu	r2,44(r2)
 108406c:	10bfffcc 	andi	r2,r2,65535
 1084070:	10a0001c 	xori	r2,r2,32768
 1084074:	10a00004 	addi	r2,r2,-32768
 1084078:	1000010e 	bge	r2,zero,1084080 <_Z11MPU_INT_ISRPvm+0xb0>
 108407c:	0085c83a 	sub	r2,zero,r2
 1084080:	1885883a 	add	r2,r3,r2
 1084084:	d0a74015 	stw	r2,-25344(gp)
	  	if(vol<10.0)                 cnt=100-nAdjust;
 1084088:	d0a73b17 	ldw	r2,-25364(gp)
 108408c:	01504834 	movhi	r5,16672
 1084090:	1009883a 	mov	r4,r2
 1084094:	1087e780 	call	1087e78 <__lesf2>
 1084098:	1000030e 	bge	r2,zero,10840a8 <_Z11MPU_INT_ISRPvm+0xd8>
 108409c:	00801544 	movi	r2,85
 10840a0:	e0bffb15 	stw	r2,-20(fp)
 10840a4:	00003b06 	br	1084194 <_Z11MPU_INT_ISRPvm+0x1c4>
	  	else if(vol>=10.0&&vol<10.5) cnt=110-nAdjust;
 10840a8:	d0a73b17 	ldw	r2,-25364(gp)
 10840ac:	01504834 	movhi	r5,16672
 10840b0:	1009883a 	mov	r4,r2
 10840b4:	1087dbc0 	call	1087dbc <__gesf2>
